	.cpu generic+fp+simd
	.file	"hisi-blk-latency.c"
	.text
.Ltext0:
	.cfi_sections	.debug_frame
	.align	2
	.type	hisi_blk_latency_req_free_func, %function
hisi_blk_latency_req_free_func:
.LFB3202:
	.file 1 "/mnt/disk/jenkins/ci/workspace/chipset_TONY_patch_01/opensource/component_code/vendor/huawei/extra/build/build_script/kirin_kernel_release/kernel/block/hisi-blk-latency.c"
	.loc 1 197 0
	.cfi_startproc
.LVL0:
	.loc 1 200 0
	ldr	x1, [x0,120]
	.loc 1 198 0
	strb	wzr, [x0,272]
	.loc 1 199 0
	str	xzr, [x0,232]
	.loc 1 200 0
	cbz	x1, .L1
.L5:
.LBB201:
	.loc 1 202 0
	str	xzr, [x1,104]
	.loc 1 203 0
	ldr	x1, [x1]
	str	x1, [x0,120]
.LBE201:
	.loc 1 200 0
	cbnz	x1, .L5
.L1:
	.loc 1 205 0
	ret
	.cfi_endproc
.LFE3202:
	.size	hisi_blk_latency_req_free_func, .-hisi_blk_latency_req_free_func
	.align	2
	.type	__hisi_blk_queue_latency_average_calc, %function
__hisi_blk_queue_latency_average_calc:
.LFB3209:
	.loc 1 380 0
	.cfi_startproc
.LVL1:
	add	x8, x0, 3456
.LVL2:
	adrp	x7, .LANCHOR0
.LVL3:
.L9:
.LBB202:
	.loc 1 386 0
	add	x3, x7, :lo12:.LANCHOR0
.LVL4:
	ldr	x6, [x0,8]
	ldr	x5, [x0,16]
	add	x0, x0, 128
.LBE202:
	.loc 1 382 0 discriminator 1
	cmp	x0, x8
.LBB203:
	.loc 1 386 0
	ldr	x11, [x3,8]
	add	x2, x5, x6
	ldr	x10, [x3,16]
	ldr	x4, [x0,-104]
	mul	x6, x6, x11
	madd	x10, x5, x10, x6
	ldr	x9, [x3,24]
	add	x2, x2, x4
	ldr	x5, [x0,-96]
	ldr	x6, [x3,32]
	nop // between mem op and mult-accumulate
	madd	x9, x4, x9, x10
	ldr	x4, [x0,-88]
	add	x2, x2, x5
	ldr	x10, [x3,40]
	nop // between mem op and mult-accumulate
	madd	x6, x5, x6, x9
	ldr	x5, [x0,-80]
	add	x2, x2, x4
	ldr	x9, [x3,48]
	nop // between mem op and mult-accumulate
	madd	x10, x4, x10, x6
	ldr	x4, [x0,-72]
	add	x2, x2, x5
	ldr	x6, [x3,56]
	nop // between mem op and mult-accumulate
	madd	x9, x5, x9, x10
	ldr	x5, [x0,-64]
	add	x2, x2, x4
	ldr	x10, [x3,64]
	nop // between mem op and mult-accumulate
	madd	x6, x4, x6, x9
	ldr	x4, [x0,-56]
	add	x2, x2, x5
	ldr	x9, [x3,72]
	nop // between mem op and mult-accumulate
	madd	x10, x5, x10, x6
	ldr	x5, [x0,-48]
	add	x2, x2, x4
	ldr	x6, [x3,80]
	nop // between mem op and mult-accumulate
	madd	x9, x4, x9, x10
	ldr	x4, [x0,-40]
	add	x2, x2, x5
	ldr	x10, [x3,88]
	nop // between mem op and mult-accumulate
	madd	x6, x5, x6, x9
	ldr	x5, [x0,-32]
	add	x2, x2, x4
	ldr	x9, [x3,96]
	nop // between mem op and mult-accumulate
	madd	x10, x4, x10, x6
	ldr	x4, [x0,-24]
	add	x2, x2, x5
	ldr	x6, [x3,104]
	nop // between mem op and mult-accumulate
	madd	x9, x5, x9, x10
	ldr	x5, [x0,-16]
	add	x2, x2, x4
	ldr	x10, [x3,112]
	nop // between mem op and mult-accumulate
	madd	x6, x4, x6, x9
	add	x2, x2, x5
	ldr	x4, [x0,-8]
	ldr	x9, [x3,120]
	nop // between mem op and mult-accumulate
	madd	x5, x5, x10, x6
	ldr	x3, [x0,-128]
	add	x2, x2, x4
	ldr	x6, [x7,#:lo12:.LANCHOR0]
	nop // between mem op and mult-accumulate
	madd	x4, x4, x9, x5
	.loc 1 387 0
	add	x2, x2, x3
.LVL5:
	.loc 1 386 0
	madd	x3, x3, x6, x4
.LVL6:
	.loc 1 389 0
	udiv	x2, x3, x2
.LVL7:
	str	x2, [x1],8
.LVL8:
.LBE203:
	.loc 1 382 0 discriminator 1
	bne	.L9
	.loc 1 391 0
	ret
	.cfi_endproc
.LFE3209:
	.size	__hisi_blk_queue_latency_average_calc, .-__hisi_blk_queue_latency_average_calc
	.align	2
	.global	blk_mq_tagset_latency_warning_set
	.type	blk_mq_tagset_latency_warning_set, %function
blk_mq_tagset_latency_warning_set:
.LFB3215:
	.loc 1 453 0
	.cfi_startproc
.LVL9:
	.loc 1 456 0
	cmp	w1, wzr
	mov	w2, 2000
	csel	w1, w1, w2, ne
.LVL10:
	.loc 1 454 0
	ldr	x2, [x0,40]
	.loc 1 455 0
	str	w1, [x0,64]
	.loc 1 454 0
	orr	x2, x2, 2
	str	x2, [x0,40]
	.loc 1 457 0
	ret
	.cfi_endproc
.LFE3215:
	.size	blk_mq_tagset_latency_warning_set, .-blk_mq_tagset_latency_warning_set
	.align	2
	.global	blk_mq_tagset_latency_statistic_set
	.type	blk_mq_tagset_latency_statistic_set, %function
blk_mq_tagset_latency_statistic_set:
.LFB3217:
	.loc 1 478 0
	.cfi_startproc
.LVL11:
	.loc 1 479 0
	ldr	x1, [x0,40]
	orr	x1, x1, 4
	str	x1, [x0,40]
	.loc 1 480 0
	ret
	.cfi_endproc
.LFE3217:
	.size	blk_mq_tagset_latency_statistic_set, .-blk_mq_tagset_latency_statistic_set
	.align	2
	.global	blk_queue_latency_warning_set
	.type	blk_queue_latency_warning_set, %function
blk_queue_latency_warning_set:
.LFB3216:
	.loc 1 464 0
	.cfi_startproc
.LVL12:
	stp	x29, x30, [sp, -48]!
	.cfi_def_cfa_offset 48
	.cfi_offset 29, -48
	.cfi_offset 30, -40
	add	x29, sp, 0
	.cfi_def_cfa_register 29
	str	x19, [sp,16]
	.cfi_offset 19, -32
	.loc 1 464 0
	mov	x19, x0
	str	x1, [x29,40]
	.loc 1 465 0
	bl	hisi_blk_get_lld
.LVL13:
	.loc 1 468 0
	ldr	x1, [x29,40]
.LVL14:
	mov	w2, 2000
	cmp	w1, wzr
	csel	w1, w1, w2, ne
.LVL15:
	.loc 1 466 0
	ldr	x2, [x0,24]
	.loc 1 467 0
	str	w1, [x0,48]
	.loc 1 466 0
	orr	x2, x2, 2
	str	x2, [x0,24]
	.loc 1 469 0
	str	w1, [x19,1180]
	.loc 1 470 0
	mov	w0, 1
.LVL16:
	strb	w0, [x19,1176]
	.loc 1 471 0
	ldr	x19, [sp,16]
	.cfi_restore 19
.LVL17:
	ldp	x29, x30, [sp], 48
	.cfi_restore 30
	.cfi_restore 29
	.cfi_def_cfa 31, 0
	ret
	.cfi_endproc
.LFE3216:
	.size	blk_queue_latency_warning_set, .-blk_queue_latency_warning_set
	.align	2
	.global	blk_queue_latency_statistic_set
	.type	blk_queue_latency_statistic_set, %function
blk_queue_latency_statistic_set:
.LFB3218:
	.loc 1 487 0
	.cfi_startproc
.LVL18:
	stp	x29, x30, [sp, -32]!
	.cfi_def_cfa_offset 32
	.cfi_offset 29, -32
	.cfi_offset 30, -24
	add	x29, sp, 0
	.cfi_def_cfa_register 29
	str	x19, [sp,16]
	.cfi_offset 19, -16
	.loc 1 487 0
	mov	x19, x0
	.loc 1 488 0
	bl	hisi_blk_get_lld
.LVL19:
	.loc 1 489 0
	ldr	x1, [x0,24]
	orr	x1, x1, 4
	str	x1, [x0,24]
	.loc 1 490 0
	mov	w0, 1
.LVL20:
	strb	w0, [x19,1177]
	.loc 1 491 0
	ldr	x19, [sp,16]
	.cfi_restore 19
.LVL21:
	ldp	x29, x30, [sp], 32
	.cfi_restore 30
	.cfi_restore 29
	.cfi_def_cfa 31, 0
	ret
	.cfi_endproc
.LFE3218:
	.size	blk_queue_latency_statistic_set, .-blk_queue_latency_statistic_set
	.align	2
	.type	hisi_blk_latency_check_timer_expire, %function
hisi_blk_latency_check_timer_expire:
.LFB3203:
	.loc 1 221 0
	.cfi_startproc
.LVL22:
	stp	x29, x30, [sp, -80]!
	.cfi_def_cfa_offset 80
	.cfi_offset 29, -80
	.cfi_offset 30, -72
	add	x29, sp, 0
	.cfi_def_cfa_register 29
	stp	x21, x22, [sp,32]
	.cfi_offset 21, -48
	.cfi_offset 22, -40
	.loc 1 229 0 discriminator 1
	adrp	x22, .LANCHOR1
	.loc 1 221 0
	str	x25, [sp,64]
	stp	x19, x20, [sp,16]
	.cfi_offset 25, -16
	.cfi_offset 19, -64
	.cfi_offset 20, -56
	.loc 1 229 0 discriminator 1
	add	x20, x22, :lo12:.LANCHOR1
	.loc 1 221 0
	mov	x19, x0
.LVL23:
	.loc 1 229 0 discriminator 1
	mov	x0, x20
.LVL24:
	.loc 1 221 0
	stp	x23, x24, [sp,48]
	.cfi_offset 23, -32
	.cfi_offset 24, -24
	.loc 1 229 0 discriminator 1
	bl	_raw_spin_lock_irqsave
.LVL25:
	mov	x23, x0
.LVL26:
	.loc 1 230 0
	ldrb	w3, [x19,145]
	cmp	w3, 76
	bne	.L37
	.loc 1 236 0
	ldr	x0, [x19,8]
	cbz	x0, .L22
	.loc 1 236 0 is_stmt 0 discriminator 1
	ldr	x0, [x0,168]
	cbz	x0, .L22
	.loc 1 236 0 discriminator 2
	ldr	x21, [x0,1048]
	cbz	x21, .L22
	.loc 1 242 0 is_stmt 1
	mov	x0, x21
	bl	hisi_blk_get_lld
.LVL27:
	mov	x25, x0
.LVL28:
.LBB204:
.LBB205:
	.file 2 "/mnt/disk/jenkins/ci/workspace/chipset_TONY_patch_01/opensource/component_code/vendor/huawei/extra/build/build_script/kirin_kernel_release/kernel/arch/arm64/include/asm/atomic_ll_sc.h"
	.loc 2 113 0
	add	x2, x20, 24
#APP
// 113 "/mnt/disk/jenkins/ci/workspace/chipset_TONY_patch_01/opensource/component_code/vendor/huawei/extra/build/build_script/kirin_kernel_release/kernel/arch/arm64/include/asm/atomic_ll_sc.h" 1
	// atomic_add
	prfm	pstl1strm, [x2]
1:	ldxr	w0, [x2]
	add	w0, w0, 1
	stxr	w1, w0, [x2]
	cbnz	w1, 1b
// 0 "" 2
.LVL29:
#NO_APP
.LBE205:
.LBE204:
	.loc 1 246 0
	adrp	x24, .LC2
	adrp	x0, .LANCHOR0
.LVL30:
	add	x20, x24, :lo12:.LC2
	add	x0, x0, :lo12:.LANCHOR0
	add	x0, x0, 128
	mov	x1, x20
.LVL31:
	bl	___ratelimit
.LVL32:
	cbnz	w0, .L38
.L21:
.LBB206:
.LBB207:
	.file 3 "/mnt/disk/jenkins/ci/workspace/chipset_TONY_patch_01/opensource/component_code/vendor/huawei/extra/build/build_script/kirin_kernel_release/kernel/include/linux/spinlock.h"
	.loc 3 362 0
	mov	x1, x23
	add	x0, x22, :lo12:.LANCHOR1
	bl	_raw_spin_unlock_irqrestore
.LVL33:
.LBE207:
.LBE206:
	.loc 1 259 0
	str	wzr, [x19,232]
	.loc 1 260 0
	mov	x0, x19
	bl	bio_put
.LVL34:
	.loc 1 261 0
	ldr	x25, [sp,64]
	.cfi_remember_state
	.cfi_restore 25
.LVL35:
	ldp	x19, x20, [sp,16]
	.cfi_restore 20
	.cfi_restore 19
.LVL36:
	ldp	x21, x22, [sp,32]
	.cfi_restore 22
	.cfi_restore 21
	ldp	x23, x24, [sp,48]
	.cfi_restore 24
	.cfi_restore 23
.LVL37:
	ldp	x29, x30, [sp], 80
	.cfi_restore 30
	.cfi_restore 29
	.cfi_def_cfa 31, 0
	ret
.LVL38:
.L38:
	.cfi_restore_state
	.loc 1 249 0
	mov	x0, x19
	mov	x1, x20
	bl	hisi_blk_dump_bio
.LVL39:
	.loc 1 250 0
	mov	w2, 0
	mov	x0, x21
	mov	x1, x20
	bl	hisi_blk_dump_queue_status
.LVL40:
	.loc 1 251 0
	ldr	x2, [x25,40]
	cbz	x2, .L24
	.loc 1 252 0
	mov	x0, x21
	mov	w1, 0
	blr	x2
.LVL41:
.L24:
	.loc 1 254 0
	ldr	w0, [x19,120]
	add	x2, x24, :lo12:.LC2
	ldr	w1, [x19,124]
	bl	iowp_report
.LVL42:
	b	.L21
.LVL43:
.L37:
	.loc 1 231 0
	adrp	x0, .LC0
	adrp	x1, .LANCHOR2
	add	x1, x1, :lo12:.LANCHOR2
	mov	w2, 232
	add	x0, x0, :lo12:.LC0
	bl	printk
.LVL44:
	.loc 1 233 0
	b	.L21
.L22:
	.loc 1 237 0
	adrp	x0, .LC1
	adrp	x1, .LANCHOR2
	add	x1, x1, :lo12:.LANCHOR2
	mov	w2, 237
	add	x0, x0, :lo12:.LC1
	bl	printk
.LVL45:
	.loc 1 238 0
	b	.L21
	.cfi_endproc
.LFE3203:
	.size	hisi_blk_latency_check_timer_expire, .-hisi_blk_latency_check_timer_expire
	.align	2
	.type	hisi_queue_io_latency_statistic_result_display, %function
hisi_queue_io_latency_statistic_result_display:
.LFB3224:
	.loc 1 558 0
	.cfi_startproc
.LVL46:
	stp	x29, x30, [sp, -128]!
	.cfi_def_cfa_offset 128
	.cfi_offset 29, -128
	.cfi_offset 30, -120
	add	x29, sp, 0
	.cfi_def_cfa_register 29
	stp	x27, x28, [sp,80]
	.cfi_offset 27, -48
	.cfi_offset 28, -40
	mov	x28, x3
	.loc 1 563 0
	adrp	x3, .LC4
.LVL47:
	.loc 1 558 0
	str	x2, [x29,112]
	.loc 1 563 0
	adrp	x2, .LC3
.LVL48:
	.loc 1 558 0
	stp	x19, x20, [sp,16]
	stp	x25, x26, [sp,64]
	.cfi_offset 19, -112
	.cfi_offset 20, -104
	.cfi_offset 25, -64
	.cfi_offset 26, -56
	mov	x20, x1
	.loc 1 563 0
	add	x2, x2, :lo12:.LC3
	mov	x1, 4096
.LVL49:
	add	x3, x3, :lo12:.LC4
	adrp	x25, .LANCHOR0
	.loc 1 558 0
	mov	x19, x0
	stp	x21, x22, [sp,32]
	stp	x23, x24, [sp,48]
	.cfi_offset 21, -96
	.cfi_offset 22, -88
	.cfi_offset 23, -80
	.cfi_offset 24, -72
	add	x25, x25, :lo12:.LANCHOR0
	.loc 1 565 0 discriminator 4
	adrp	x22, .LC6
	.loc 1 565 0 is_stmt 0 discriminator 2
	adrp	x24, .LC5
	.loc 1 566 0 is_stmt 1
	mov	x21, x1
	add	x23, x25, 128
	.loc 1 563 0
	bl	snprintf
.LVL50:
	.loc 1 565 0 discriminator 4
	add	x22, x22, :lo12:.LC6
	.loc 1 563 0
	sxtw	x26, w0
	.loc 1 565 0 discriminator 2
	add	x24, x24, :lo12:.LC5
	b	.L42
.L56:
	mov	x2, x24
	add	x25, x25, 8
	bl	snprintf
.LVL51:
	.loc 1 565 0 is_stmt 0 discriminator 5
	add	x26, x26, x0, sxtw
	.loc 1 564 0 is_stmt 1 discriminator 1
	cmp	x25, x23
	beq	.L55
.L42:
	.loc 1 565 0
	ldr	x5, [x25]
	.loc 1 565 0 is_stmt 0 discriminator 4
	add	x0, x19, x26
	sub	x1, x21, x26
	mov	x2, x22
	.loc 1 565 0 discriminator 1
	lsl	x3, x5, 3
	.loc 1 565 0 discriminator 2
	add	x3, x3, x5, lsl 1
	.loc 1 565 0
	cbnz	x5, .L56
	.loc 1 565 0 discriminator 4
	bl	snprintf
.LVL52:
	add	x25, x25, 8
	.loc 1 564 0 is_stmt 1 discriminator 1
	cmp	x25, x23
	.loc 1 565 0 discriminator 5
	add	x26, x26, x0, sxtw
	.loc 1 564 0 discriminator 1
	bne	.L42
.L55:
	adrp	x25, .LANCHOR2
	.loc 1 568 0
	adrp	x0, .LC7
	add	x0, x0, :lo12:.LC7
	add	x25, x25, :lo12:.LANCHOR2
	add	x25, x25, 56
	str	x0, [x29,104]
	.loc 1 570 0
	adrp	x23, .LC8
	.loc 1 571 0
	adrp	x0, .LC9
	add	x0, x0, :lo12:.LC9
	.loc 1 568 0
	mov	x22, 4096
	mov	x27, x20
	.loc 1 564 0 discriminator 1
	mov	x24, x25
	.loc 1 570 0
	add	x23, x23, :lo12:.LC8
	.loc 1 571 0
	str	x0, [x29,96]
.L44:
	.loc 1 568 0
	ldr	x3, [x24]
	add	x0, x19, x26
	ldr	x2, [x29,104]
	sub	x1, x22, x26
	add	x20, x27, 128
.LVL53:
	str	x24, [x29,120]
	bl	snprintf
.LVL54:
	add	x26, x26, x0, sxtw
.L43:
	.loc 1 570 0
	ldr	x3, [x27],8
	add	x0, x19, x26
	sub	x1, x22, x26
	mov	x2, x23
	mov	x21, 4096
	bl	snprintf
.LVL55:
	add	x26, x26, x0, sxtw
	.loc 1 569 0 discriminator 1
	cmp	x20, x27
	bne	.L43
	.loc 1 571 0
	ldr	x2, [x29,96]
	sub	x1, x21, x26
	add	x0, x19, x26
	add	x24, x24, 24
	mov	x27, x20
	bl	snprintf
.LVL56:
	add	x26, x26, x0, sxtw
	.loc 1 567 0 discriminator 1
	ldr	x1, [x29,120]
	ldrb	w1, [x1,8]
	cbnz	w1, .L44
	.loc 1 573 0
	adrp	x2, .LC11
	adrp	x3, .LC4
	.loc 1 575 0
	adrp	x23, .LC10
	.loc 1 573 0
	add	x0, x19, x26
	sub	x1, x21, x26
	add	x2, x2, :lo12:.LC11
	add	x3, x3, :lo12:.LC4
	mov	x22, 0
	.loc 1 575 0
	add	x23, x23, :lo12:.LC10
	.loc 1 573 0
	bl	snprintf
.LVL57:
	add	x20, x26, x0, sxtw
.L46:
	.loc 1 575 0
	ldr	x0, [x29,112]
.LVL58:
	mov	x24, x25
	ldr	x5, [x28,x22]
	sub	x1, x21, x20
	ldr	x3, [x25],24
	mov	x2, x23
	ldr	x4, [x0,x22]
	lsl	x6, x5, 3
	add	x0, x19, x20
.LVL59:
	add	x5, x6, x5, lsl 1
	lsl	x7, x4, 3
	add	x22, x22, 8
	add	x4, x7, x4, lsl 1
	bl	snprintf
.LVL60:
	add	x20, x20, x0, sxtw
	.loc 1 574 0 discriminator 1
	ldrb	w1, [x24,8]
	cbnz	w1, .L46
	.loc 1 578 0
	mov	x0, x20
	ldp	x19, x20, [sp,16]
	.cfi_restore 20
	.cfi_restore 19
.LVL61:
	ldp	x21, x22, [sp,32]
	.cfi_restore 22
	.cfi_restore 21
	ldp	x23, x24, [sp,48]
	.cfi_restore 24
	.cfi_restore 23
	ldp	x25, x26, [sp,64]
	.cfi_restore 26
	.cfi_restore 25
	ldp	x27, x28, [sp,80]
	.cfi_restore 28
	.cfi_restore 27
.LVL62:
	ldp	x29, x30, [sp], 128
	.cfi_restore 30
	.cfi_restore 29
	.cfi_def_cfa 31, 0
	ret
	.cfi_endproc
.LFE3224:
	.size	hisi_queue_io_latency_statistic_result_display, .-hisi_queue_io_latency_statistic_result_display
	.align	2
	.type	hisi_blk_latency_req_update_func, %function
hisi_blk_latency_req_update_func:
.LFB3201:
	.loc 1 190 0
	.cfi_startproc
.LVL63:
	stp	x29, x30, [sp, -32]!
	.cfi_def_cfa_offset 32
	.cfi_offset 29, -32
	.cfi_offset 30, -24
	add	x29, sp, 0
	.cfi_def_cfa_register 29
	str	x19, [sp,16]
	.cfi_offset 19, -16
	.loc 1 192 0
	ldrb	w1, [x0,273]
	cbnz	w1, .L62
	.loc 1 194 0
	ldr	x19, [sp,16]
	.cfi_remember_state
	.cfi_restore 19
	ldp	x29, x30, [sp], 32
	.cfi_restore 30
	.cfi_restore 29
	.cfi_def_cfa 31, 0
	ret
.L62:
	.cfi_restore_state
	mov	x19, x0
.LBB214:
.LBB215:
.LBB216:
.LBB217:
.LBB218:
.LBB219:
	.file 4 "/mnt/disk/jenkins/ci/workspace/chipset_TONY_patch_01/opensource/component_code/vendor/huawei/extra/build/build_script/kirin_kernel_release/kernel/include/linux/timekeeping.h"
	.loc 4 207 0
	mov	w0, 1
.LVL64:
	bl	ktime_get_with_offset
.LVL65:
.LBE219:
.LBE218:
	.loc 4 260 0 discriminator 1
	bl	ns_to_timespec
.LVL66:
	add	x2, x19, 312
	stp	x0, x1, [x2]
.LBE217:
.LBE216:
.LBE215:
.LBE214:
	.loc 1 194 0
	ldr	x19, [sp,16]
	.cfi_restore 19
.LVL67:
	ldp	x29, x30, [sp], 32
	.cfi_restore 29
	.cfi_restore 30
	.cfi_def_cfa 31, 0
	ret
	.cfi_endproc
.LFE3201:
	.size	hisi_blk_latency_req_update_func, .-hisi_blk_latency_req_update_func
	.align	2
	.type	hisi_blk_latency_req_start_func, %function
hisi_blk_latency_req_start_func:
.LFB3200:
	.loc 1 183 0
	.cfi_startproc
.LVL68:
	stp	x29, x30, [sp, -32]!
	.cfi_def_cfa_offset 32
	.cfi_offset 29, -32
	.cfi_offset 30, -24
	add	x29, sp, 0
	.cfi_def_cfa_register 29
	str	x19, [sp,16]
	.cfi_offset 19, -16
	.loc 1 184 0
	ldrb	w1, [x0,273]
	cbnz	w1, .L68
	.loc 1 186 0
	ldr	x19, [sp,16]
	.cfi_remember_state
	.cfi_restore 19
	ldp	x29, x30, [sp], 32
	.cfi_restore 30
	.cfi_restore 29
	.cfi_def_cfa 31, 0
	ret
.L68:
	.cfi_restore_state
	mov	x19, x0
.LBB226:
.LBB227:
.LBB228:
.LBB229:
.LBB230:
.LBB231:
	.loc 4 207 0
	mov	w0, 1
.LVL69:
	bl	ktime_get_with_offset
.LVL70:
.LBE231:
.LBE230:
	.loc 4 260 0 discriminator 1
	bl	ns_to_timespec
.LVL71:
	add	x2, x19, 296
	stp	x0, x1, [x2]
.LBE229:
.LBE228:
.LBE227:
.LBE226:
	.loc 1 186 0
	ldr	x19, [sp,16]
	.cfi_restore 19
.LVL72:
	ldp	x29, x30, [sp], 32
	.cfi_restore 29
	.cfi_restore 30
	.cfi_def_cfa 31, 0
	ret
	.cfi_endproc
.LFE3200:
	.size	hisi_blk_latency_req_start_func, .-hisi_blk_latency_req_start_func
	.align	2
	.type	hisi_blk_queue_latency_statistic_calc.isra.3, %function
hisi_blk_queue_latency_statistic_calc.isra.3:
.LFB3231:
	.loc 1 348 0
	.cfi_startproc
.LVL73:
	stp	x29, x30, [sp, -64]!
	.cfi_def_cfa_offset 64
	.cfi_offset 29, -64
	.cfi_offset 30, -56
	uxtb	w0, w0
	add	x29, sp, 0
	.cfi_def_cfa_register 29
	stp	x19, x20, [sp,16]
	stp	x21, x22, [sp,32]
	stp	x23, x24, [sp,48]
	.cfi_offset 19, -48
	.cfi_offset 20, -40
	.cfi_offset 21, -32
	.cfi_offset 22, -24
	.cfi_offset 23, -16
	.cfi_offset 24, -8
	.loc 1 352 0
	tbnz	x2, #63, .L79
	.loc 1 354 0
	mov	x9, 22859
	adrp	x10, .LANCHOR2
	movk	x9, 0x3886, lsl 16
	add	x6, x10, :lo12:.LANCHOR2
	movk	x9, 0xc5d6, lsl 32
	add	x6, x6, 44
	movk	x9, 0x346d, lsl 48
	mov	w8, 0
.LVL74:
	mov	w7, 1
	smulh	x9, x2, x9
	asr	x9, x9, 11
	sub	x19, x9, x2, asr 63
.LVL75:
	b	.L75
.L71:
	add	x6, x6, 24
	.loc 1 355 0 discriminator 1
	ldrb	w7, [x6,-4]
	.loc 1 355 0 is_stmt 0 discriminator 2
	add	w8, w8, 1
	.loc 1 355 0 discriminator 1
	cbz	w7, .L106
.L75:
	.loc 1 356 0 is_stmt 1
	cmp	w7, w0
	bne	.L71
	.loc 1 356 0 is_stmt 0 discriminator 1
	ldr	w7, [x6]
	.loc 1 356 0 discriminator 2
	cmp	w7, w1
	bcs	.L97
	cbnz	w7, .L71
.L97:
	.loc 1 362 0 is_stmt 1
	adrp	x9, .LANCHOR0
	.loc 1 357 0
	sxtw	x6, w8
.LVL76:
	lsl	x0, x6, 5
.LVL77:
	add	x10, x10, :lo12:.LANCHOR2
	sub	x6, x0, x6, lsl 3
.LVL78:
	.loc 1 362 0
	ldr	x0, [x9,#:lo12:.LANCHOR0]
	.loc 1 357 0
	add	x6, x10, x6
	.loc 1 362 0
	cmp	x19, x0
	.loc 1 357 0
	ldr	w24, [x6,48]
	.loc 1 362 0
	ble	.L107
.LVL79:
.L74:
	add	x6, x9, :lo12:.LANCHOR0
	ldr	x0, [x6,8]
	cmp	x19, x0
	ble	.L81
	ldr	x0, [x6,16]
	cmp	x19, x0
	ble	.L82
	ldr	x0, [x6,24]
	cmp	x19, x0
	ble	.L83
	ldr	x0, [x6,32]
	cmp	x19, x0
	ble	.L84
	ldr	x0, [x6,40]
	cmp	x19, x0
	ble	.L85
	ldr	x0, [x6,48]
	cmp	x19, x0
	ble	.L86
	ldr	x0, [x6,56]
	cmp	x19, x0
	ble	.L87
	ldr	x0, [x6,64]
	cmp	x19, x0
	ble	.L88
	ldr	x0, [x6,72]
	cmp	x19, x0
	ble	.L89
	ldr	x0, [x6,80]
	cmp	x19, x0
	ble	.L90
	ldr	x0, [x6,88]
	cmp	x19, x0
	ble	.L91
	ldr	x0, [x6,96]
	cmp	x19, x0
	ble	.L92
	ldr	x0, [x6,104]
	cmp	x19, x0
	ble	.L93
	ldr	x0, [x6,112]
	mov	w20, 14
	cmp	x19, x0
	mov	w0, 15
	csel	w20, w20, w0, le
.LVL80:
.L73:
	.loc 1 367 0
	cmp	w24, 26
	bgt	.L96
	mov	x22, x3
	.loc 1 368 0 discriminator 1
	mov	x0, x5
	mov	x21, x4
	mov	x23, x5
	bl	_raw_spin_lock_irqsave
.LVL81:
	mov	x1, x0
.LVL82:
	.loc 1 369 0
	sbfiz	x6, x24, 7, 32
	add	x6, x6, x20, sxtw 3
	ldr	x10, [x22,x6]
.LBB232:
.LBB233:
	.loc 3 362 0
	mov	x0, x23
.LBE233:
.LBE232:
	.loc 1 369 0
	add	x9, x10, 1
	str	x9, [x22,x6]
	.loc 1 370 0
	ldr	x6, [x21,w24,sxtw 3]
	cmp	x6, x19
	csel	x9, x6, x19, ge
	str	x9, [x21,w24,sxtw 3]
.LBB235:
.LBB234:
	.loc 3 362 0
	bl	_raw_spin_unlock_irqrestore
.LVL83:
.LBE234:
.LBE235:
	.loc 1 376 0
	mov	w0, 0
.LVL84:
.L103:
	.loc 1 377 0
	ldp	x19, x20, [sp,16]
	.cfi_remember_state
	.cfi_restore 20
	.cfi_restore 19
.LVL85:
	ldp	x21, x22, [sp,32]
	.cfi_restore 22
	.cfi_restore 21
.LVL86:
	ldp	x23, x24, [sp,48]
	.cfi_restore 24
	.cfi_restore 23
.LVL87:
	ldp	x29, x30, [sp], 64
	.cfi_restore 30
	.cfi_restore 29
	.cfi_def_cfa 31, 0
	ret
.LVL88:
.L106:
	.cfi_restore_state
	.loc 1 362 0
	adrp	x9, .LANCHOR0
	ldr	x0, [x9,#:lo12:.LANCHOR0]
.LVL89:
	cmp	x19, x0
	ble	.L96
	.loc 1 350 0
	mov	w24, 255
.LVL90:
	b	.L74
.LVL91:
.L96:
	.loc 1 374 0
	mov	w0, -5
	.loc 1 377 0
	ldp	x19, x20, [sp,16]
	.cfi_remember_state
	.cfi_restore 19
	.cfi_restore 20
.LVL92:
	ldp	x21, x22, [sp,32]
	.cfi_restore 21
	.cfi_restore 22
	ldp	x23, x24, [sp,48]
	.cfi_restore 23
	.cfi_restore 24
.LVL93:
	ldp	x29, x30, [sp], 64
	.cfi_restore 29
	.cfi_restore 30
	.cfi_def_cfa 31, 0
	ret
.LVL94:
.L88:
	.cfi_restore_state
	.loc 1 361 0 discriminator 2
	mov	w20, 8
.LVL95:
	b	.L73
.LVL96:
.L107:
	.loc 1 361 0 is_stmt 0
	mov	w20, 0
.LVL97:
	b	.L73
.LVL98:
.L81:
	.loc 1 361 0 discriminator 2
	mov	w20, 1
.LVL99:
	b	.L73
.LVL100:
.L82:
	mov	w20, 2
.LVL101:
	b	.L73
.LVL102:
.L83:
	mov	w20, 3
.LVL103:
	b	.L73
.LVL104:
.L84:
	mov	w20, 4
.LVL105:
	b	.L73
.LVL106:
.L86:
	mov	w20, 6
.LVL107:
	b	.L73
.LVL108:
.L85:
	mov	w20, 5
.LVL109:
	b	.L73
.LVL110:
.L87:
	mov	w20, 7
.LVL111:
	b	.L73
.LVL112:
.L89:
	mov	w20, 9
.LVL113:
	b	.L73
.LVL114:
.L79:
	.loc 1 353 0 is_stmt 1
	mov	w0, -1
.LVL115:
	b	.L103
.LVL116:
.L90:
	.loc 1 361 0 discriminator 2
	mov	w20, 10
.LVL117:
	b	.L73
.LVL118:
.L93:
	mov	w20, 13
.LVL119:
	b	.L73
.LVL120:
.L91:
	mov	w20, 11
.LVL121:
	b	.L73
.LVL122:
.L92:
	mov	w20, 12
.LVL123:
	b	.L73
	.cfi_endproc
.LFE3231:
	.size	hisi_blk_queue_latency_statistic_calc.isra.3, .-hisi_blk_queue_latency_statistic_calc.isra.3
	.align	2
	.type	hisi_blk_latency_bio_endio_func, %function
hisi_blk_latency_bio_endio_func:
.LFB3198:
	.loc 1 125 0
	.cfi_startproc
.LVL124:
	stp	x29, x30, [sp, -48]!
	.cfi_def_cfa_offset 48
	.cfi_offset 29, -48
	.cfi_offset 30, -40
.LBB236:
.LBB237:
.LBB238:
.LBB239:
	.file 5 "/mnt/disk/jenkins/ci/workspace/chipset_TONY_patch_01/opensource/component_code/vendor/huawei/extra/build/build_script/kirin_kernel_release/kernel/arch/arm64/include/asm/current.h"
	.loc 5 20 0
#APP
// 20 "/mnt/disk/jenkins/ci/workspace/chipset_TONY_patch_01/opensource/component_code/vendor/huawei/extra/build/build_script/kirin_kernel_release/kernel/arch/arm64/include/asm/current.h" 1
	mrs x1, sp_el0
// 0 "" 2
.LVL125:
#NO_APP
.LBE239:
.LBE238:
.LBE237:
.LBE236:
	.loc 1 125 0
	add	x29, sp, 0
	.cfi_def_cfa_register 29
	stp	x19, x20, [sp,16]
	str	x21, [sp,32]
	.cfi_offset 19, -32
	.cfi_offset 20, -24
	.cfi_offset 21, -16
	.loc 1 125 0
	mov	x19, x0
	.loc 1 128 0 discriminator 1
	mov	x20, 1000
.LBB243:
.LBB242:
.LBB240:
.LBB241:
	.file 6 "/mnt/disk/jenkins/ci/workspace/chipset_TONY_patch_01/opensource/component_code/vendor/huawei/extra/build/build_script/kirin_kernel_release/kernel/include/linux/compiler.h"
	.loc 6 247 0 discriminator 4
	ldr	w1, [x1,16]
.LVL126:
.LBE241:
.LBE240:
.LBE242:
.LBE243:
	.loc 1 128 0
	tst	w1, 2096896
	bne	.L109
	.loc 1 128 0 is_stmt 0 discriminator 2
	mov	x20, 34464
	movk	x20, 0x1, lsl 16
.L109:
	.loc 1 130 0 is_stmt 1
	strb	wzr, [x19,145]
	.loc 1 132 0
	add	x0, x19, 184
	bl	del_timer
.LVL127:
	cbz	w0, .L127
	.loc 1 133 0
	mov	x0, x19
	bl	bio_put
.LVL128:
.L113:
	.loc 1 146 0
	ldrb	w0, [x19,240]
	.loc 1 143 0
	str	wzr, [x19,232]
	.loc 1 145 0
	str	xzr, [x19,104]
	.loc 1 146 0
	cbnz	w0, .L128
	.loc 1 162 0
	ldp	x19, x20, [sp,16]
	.cfi_remember_state
	.cfi_restore 20
	.cfi_restore 19
.LVL129:
	ldr	x21, [sp,32]
	.cfi_restore 21
	ldp	x29, x30, [sp], 48
	.cfi_restore 30
	.cfi_restore 29
	.cfi_def_cfa 31, 0
	ret
.LVL130:
.L127:
	.cfi_restore_state
	.loc 1 135 0
	ldr	w0, [x19,232]
	cbz	w0, .L113
	.loc 1 135 0 is_stmt 0 discriminator 1
	sub	x20, x20, #1
	b	.L112
.L129:
	sub	x20, x20, #1
	cmn	x20, #1
	beq	.L113
.L112:
	.loc 1 136 0 is_stmt 1 discriminator 5
	mov	x0, 42950
	bl	__const_udelay
.LVL131:
	.loc 1 135 0
	ldr	w0, [x19,232]
	cbnz	w0, .L129
	.loc 1 138 0
	cbnz	x20, .L113
	.loc 1 138 0 is_stmt 0 discriminator 2
	adrp	x0, .LANCHOR2
	add	x0, x0, :lo12:.LANCHOR2
	add	x0, x0, 712
	bl	__printk_ratelimit
.LVL132:
	.loc 1 138 0 discriminator 1
	cbz	w0, .L113
	.loc 1 139 0 is_stmt 1
	adrp	x0, .LC12
	add	x0, x0, :lo12:.LC12
	bl	printk
.LVL133:
	.loc 1 140 0
	bl	dump_stack
.LVL134:
	b	.L113
.L128:
	ldr	x1, [x19,8]
.LBB244:
.LBB245:
.LBB246:
.LBB247:
.LBB248:
	.loc 4 207 0
	mov	w0, 1
.LBE248:
.LBE247:
.LBE246:
.LBE245:
.LBB252:
.LBB253:
	.file 7 "/mnt/disk/jenkins/ci/workspace/chipset_TONY_patch_01/opensource/component_code/vendor/huawei/extra/build/build_script/kirin_kernel_release/kernel/include/linux/blkdev.h"
	.loc 7 1233 0
	ldr	x1, [x1,168]
	ldr	x20, [x1,1048]
.LBE253:
.LBE252:
.LBB254:
.LBB251:
.LBB250:
.LBB249:
	.loc 4 207 0
	bl	ktime_get_with_offset
.LVL135:
.LBE249:
.LBE250:
	.loc 4 260 0 discriminator 1
	bl	ns_to_timespec
.LVL136:
.LBE251:
.LBE254:
.LBB255:
.LBB256:
	.file 8 "/mnt/disk/jenkins/ci/workspace/chipset_TONY_patch_01/opensource/component_code/vendor/huawei/extra/build/build_script/kirin_kernel_release/kernel/include/linux/time.h"
	.loc 8 232 0
	ldr	x21, [x19,256]
.LBE256:
.LBE255:
.LBB260:
.LBB261:
	mov	x2, 51712
.LBE261:
.LBE260:
.LBB264:
.LBB257:
	ldr	x4, [x19,248]
	mov	x5, x2
.LBE257:
.LBE264:
.LBB265:
.LBB262:
	movk	x2, 0x3b9a, lsl 16
.LBE262:
.LBE265:
.LBB266:
.LBB258:
	movk	x5, 0x3b9a, lsl 16
.LBE258:
.LBE266:
	.loc 1 150 0
	add	x3, x20, 1640
.LBB267:
.LBB263:
	.loc 8 232 0
	madd	x0, x0, x2, x1
.LBE263:
.LBE267:
.LBB268:
.LBB259:
	madd	x21, x4, x5, x21
.LBE259:
.LBE268:
	.loc 1 150 0
	ldr	w1, [x19,236]
	add	x4, x20, 1424
	.loc 1 149 0
	sub	x21, x0, x21
.LVL137:
	.loc 1 150 0
	ldrb	w0, [x19,240]
	mov	x2, x21
	add	x5, x20, 1184
	bl	hisi_blk_queue_latency_statistic_calc.isra.3
.LVL138:
	.loc 1 154 0
	add	x5, x20, 4096
	.loc 1 153 0
	ldr	w1, [x19,236]
	ldr	x2, [x19,264]
	add	x3, x5, 1456
	ldrb	w0, [x19,240]
	add	x4, x5, 1240
	add	x5, x5, 1000
	bl	hisi_blk_queue_latency_statistic_calc.isra.3
.LVL139:
	.loc 1 157 0
	ldr	x2, [x19,264]
	.loc 1 158 0
	add	x5, x20, 8192
	.loc 1 157 0
	ldr	w1, [x19,236]
	add	x3, x5, 1272
	ldrb	w0, [x19,240]
	sub	x2, x21, x2
	add	x4, x5, 1056
	add	x5, x5, 816
	bl	hisi_blk_queue_latency_statistic_calc.isra.3
.LVL140:
.LBE244:
	.loc 1 162 0
	ldr	x21, [sp,32]
	.cfi_restore 21
.LVL141:
	ldp	x19, x20, [sp,16]
	.cfi_restore 19
	.cfi_restore 20
.LVL142:
	ldp	x29, x30, [sp], 48
	.cfi_restore 29
	.cfi_restore 30
	.cfi_def_cfa 31, 0
	ret
	.cfi_endproc
.LFE3198:
	.size	hisi_blk_latency_bio_endio_func, .-hisi_blk_latency_bio_endio_func
	.align	2
	.type	hisi_blk_latency_bio_submit_func, %function
hisi_blk_latency_bio_submit_func:
.LFB3197:
	.loc 1 78 0
	.cfi_startproc
.LVL143:
	stp	x29, x30, [sp, -80]!
	.cfi_def_cfa_offset 80
	.cfi_offset 29, -80
	.cfi_offset 30, -72
	add	x29, sp, 0
	.cfi_def_cfa_register 29
	stp	x19, x20, [sp,16]
	stp	x21, x22, [sp,32]
	stp	x23, x24, [sp,48]
	str	x25, [sp,64]
	.cfi_offset 19, -64
	.cfi_offset 20, -56
	.cfi_offset 21, -48
	.cfi_offset 22, -40
	.cfi_offset 23, -32
	.cfi_offset 24, -24
	.cfi_offset 25, -16
	.loc 1 82 0
	strb	wzr, [x0,240]
	.loc 1 83 0
	ldr	x1, [x0,8]
	cbz	x1, .L130
.LBB311:
.LBB312:
	.loc 7 1233 0
	ldr	x1, [x1,168]
	ldr	x21, [x1,1048]
.LBE312:
.LBE311:
	.loc 1 87 0
	cbz	x21, .L130
	.loc 1 87 0 is_stmt 0 discriminator 1
	ldrb	w1, [x21,1176]
	cbz	w1, .L130
	mov	x19, x0
	.loc 1 90 0 is_stmt 1
	ldrb	w0, [x0,145]
.LVL144:
	cmp	w0, 76
	beq	.L134
.LBB313:
.LBB314:
	.loc 1 54 0
	add	x22, x19, 184
	.loc 1 53 0
	mov	w4, 1
	.loc 1 54 0
	mov	w1, 0
	mov	x0, x22
	mov	x2, 0
	mov	x3, 0
	.loc 1 53 0
	str	w4, [x19,232]
	.loc 1 54 0
	bl	init_timer_key
.LVL145:
	.loc 1 55 0
	str	x19, [x19,216]
	.loc 1 56 0
	adrp	x0, hisi_blk_latency_check_timer_expire
	add	x0, x0, :lo12:hisi_blk_latency_check_timer_expire
	str	x0, [x19,208]
.LBB315:
.LBB316:
	.file 9 "/mnt/disk/jenkins/ci/workspace/chipset_TONY_patch_01/opensource/component_code/vendor/huawei/extra/build/build_script/kirin_kernel_release/kernel/include/linux/jiffies.h"
	.loc 9 364 0
	ldr	w0, [x21,1180]
	bl	__msecs_to_jiffies
.LVL146:
.LBE316:
.LBE315:
	.loc 1 57 0
	adrp	x1, jiffies
.LBB317:
.LBB318:
	.file 10 "/mnt/disk/jenkins/ci/workspace/chipset_TONY_patch_01/opensource/component_code/vendor/huawei/extra/build/build_script/kirin_kernel_release/kernel/include/linux/bio.h"
	.loc 10 231 0
	ldrh	w2, [x19,24]
	orr	w2, w2, 256
	strh	w2, [x19,24]
.LBE318:
.LBE317:
	.loc 1 57 0
	ldr	x1, [x1,#:lo12:jiffies]
	add	x0, x0, x1
	str	x0, [x19,200]
.LBB322:
.LBB321:
	.loc 10 232 0
#APP
// 232 "/mnt/disk/jenkins/ci/workspace/chipset_TONY_patch_01/opensource/component_code/vendor/huawei/extra/build/build_script/kirin_kernel_release/kernel/include/linux/bio.h" 1
	dmb ish
// 0 "" 2
#NO_APP
.LBB319:
.LBB320:
	.loc 2 113 0
	add	x2, x19, 372
#APP
// 113 "/mnt/disk/jenkins/ci/workspace/chipset_TONY_patch_01/opensource/component_code/vendor/huawei/extra/build/build_script/kirin_kernel_release/kernel/arch/arm64/include/asm/atomic_ll_sc.h" 1
	// atomic_add
	prfm	pstl1strm, [x2]
1:	ldxr	w0, [x2]
	add	w0, w0, 1
	stxr	w1, w0, [x2]
	cbnz	w1, 1b
// 0 "" 2
.LVL147:
#NO_APP
.LBE320:
.LBE319:
.LBE321:
.LBE322:
.LBB323:
	.loc 1 60 0
	adrp	x20, cpu_number
.LBE323:
.LBB326:
.LBB327:
.LBB328:
	.file 11 "/mnt/disk/jenkins/ci/workspace/chipset_TONY_patch_01/opensource/component_code/vendor/huawei/extra/build/build_script/kirin_kernel_release/kernel/include/asm-generic/bitops/non-atomic.h"
	.loc 11 105 0
	adrp	x24, __cpu_online_mask
.LBE328:
.LBE327:
.LBE326:
.LBB333:
.LBB324:
.LBB325:
	.file 12 "/mnt/disk/jenkins/ci/workspace/chipset_TONY_patch_01/opensource/component_code/vendor/huawei/extra/build/build_script/kirin_kernel_release/kernel/arch/arm64/include/asm/percpu.h"
	.loc 12 34 0
#APP
// 34 "/mnt/disk/jenkins/ci/workspace/chipset_TONY_patch_01/opensource/component_code/vendor/huawei/extra/build/build_script/kirin_kernel_release/kernel/arch/arm64/include/asm/percpu.h" 1
	mrs x0, tpidr_el1
// 0 "" 2
.LVL148:
#NO_APP
.LBE325:
.LBE324:
	.loc 1 60 0
	add	x23, x20, :lo12:cpu_number
.LVL149:
.LBE333:
	ldr	w2, [x0,x23]
.LBB334:
.LBB331:
.LBB329:
	.loc 11 105 0
	ldr	x3, [x24,#:lo12:__cpu_online_mask]
.LBE329:
.LBE331:
.LBE334:
	.loc 1 60 0
	add	w0, w2, 1
.LVL150:
	asr	w1, w0, 31
.LVL151:
	lsr	w1, w1, 29
	add	w2, w0, w1
	and	w2, w2, 7
	sub	w1, w2, w1
.LBB335:
.LBB332:
.LBB330:
	.loc 11 105 0
	lsr	x3, x3, x1
.LBE330:
.LBE332:
.LBE335:
	.loc 1 61 0
	tbnz	x3, 0, .L135
	.loc 1 64 0 discriminator 1
	adrp	x25, nr_cpu_ids
	.loc 1 61 0
	mov	w2, -1
.LBB336:
.LBB337:
	.file 13 "/mnt/disk/jenkins/ci/workspace/chipset_TONY_patch_01/opensource/component_code/vendor/huawei/extra/build/build_script/kirin_kernel_release/kernel/include/linux/cpumask.h"
	.loc 13 220 0
	add	x24, x24, :lo12:__cpu_online_mask
.LBE337:
.LBE336:
	.loc 1 64 0 discriminator 1
	add	x25, x25, :lo12:nr_cpu_ids
	b	.L136
.LVL152:
.L137:
.LBB339:
.LBB340:
.LBB341:
	.loc 12 34 0
#APP
// 34 "/mnt/disk/jenkins/ci/workspace/chipset_TONY_patch_01/opensource/component_code/vendor/huawei/extra/build/build_script/kirin_kernel_release/kernel/arch/arm64/include/asm/percpu.h" 1
	mrs x2, tpidr_el1
// 0 "" 2
.LVL153:
#NO_APP
.LBE341:
.LBE340:
.LBE339:
	.loc 1 65 0
	ldr	w2, [x2,x23]
.LVL154:
	cmp	w2, w0
	bne	.L135
.L136:
.LBB342:
.LBB338:
	.loc 13 220 0
	add	w2, w2, 1
	mov	x1, 8
	mov	x0, x24
	sxtw	x2, w2
	bl	find_next_bit
.LVL155:
.LBE338:
.LBE342:
	.loc 1 64 0 discriminator 1
	mov	w1, w0
	ldr	w2, [x25]
	cmp	w0, w2
	blt	.L137
.L135:
	.loc 1 67 0
	cmp	w1, 7
	bls	.L138
.LBB343:
	.loc 1 68 0
	add	x20, x20, :lo12:cpu_number
.LBB344:
.LBB345:
	.loc 12 34 0
#APP
// 34 "/mnt/disk/jenkins/ci/workspace/chipset_TONY_patch_01/opensource/component_code/vendor/huawei/extra/build/build_script/kirin_kernel_release/kernel/arch/arm64/include/asm/percpu.h" 1
	mrs x0, tpidr_el1
// 0 "" 2
.LVL156:
#NO_APP
.LBE345:
.LBE344:
	.loc 1 68 0
.LBE343:
	ldr	w1, [x0,x20]
.L138:
	.loc 1 69 0
	mov	x0, x22
.LVL157:
	bl	add_timer_on
.LVL158:
	.loc 1 70 0
	ldr	x1, [x19,8]
.LBB346:
.LBB347:
	.loc 5 20 0
#APP
// 20 "/mnt/disk/jenkins/ci/workspace/chipset_TONY_patch_01/opensource/component_code/vendor/huawei/extra/build/build_script/kirin_kernel_release/kernel/arch/arm64/include/asm/current.h" 1
	mrs x0, sp_el0
// 0 "" 2
.LVL159:
#NO_APP
.LBE347:
.LBE346:
	.loc 1 70 0
	str	x1, [x19,96]
	.loc 1 74 0 discriminator 1
	add	x1, x0, 2216
	.loc 1 71 0
	str	x0, [x19,112]
	.loc 1 72 0
	ldr	w2, [x0,1736]
	str	w2, [x19,120]
	.loc 1 73 0
	ldr	w0, [x0,1740]
.LVL160:
	str	w0, [x19,124]
	.loc 1 74 0 discriminator 1
	ldp	x0, x1, [x1]
	stp	x0, x1, [x19,128]
.L134:
.LBE314:
.LBE313:
	.loc 1 93 0
	mov	w0, 76
	.loc 1 94 0
	str	xzr, [x19,104]
	.loc 1 93 0
	strb	w0, [x19,145]
	.loc 1 96 0
	str	xzr, [x19,152]
	str	xzr, [x19,160]
	str	xzr, [x19,168]
	str	xzr, [x19,176]
	.loc 1 98 0
	ldrb	w0, [x21,1177]
	cbnz	w0, .L157
.L130:
	.loc 1 122 0
	ldp	x19, x20, [sp,16]
	.cfi_remember_state
	.cfi_restore 20
	.cfi_restore 19
.LVL161:
	ldp	x21, x22, [sp,32]
	.cfi_restore 22
	.cfi_restore 21
	ldp	x23, x24, [sp,48]
	.cfi_restore 24
	.cfi_restore 23
.LVL162:
	ldr	x25, [sp,64]
	.cfi_restore 25
	ldp	x29, x30, [sp], 80
	.cfi_restore 30
	.cfi_restore 29
	.cfi_def_cfa 31, 0
	ret
.LVL163:
.L157:
	.cfi_restore_state
.LBB348:
.LBB349:
.LBB350:
.LBB351:
.LBB352:
.LBB353:
	.loc 4 207 0
	mov	w0, 1
	bl	ktime_get_with_offset
.LVL164:
.LBE353:
.LBE352:
	.loc 4 260 0 discriminator 1
	bl	ns_to_timespec
.LVL165:
	add	x2, x19, 248
	stp	x0, x1, [x2]
.LBE351:
.LBE350:
	.loc 1 100 0
	str	xzr, [x19,264]
	.loc 1 102 0
	ldr	w0, [x19,20]
	.loc 1 101 0
	ldr	w1, [x19,40]
	.loc 1 102 0
	lsr	w0, w0, 29
	.loc 1 101 0
	lsr	w1, w1, 12
	.loc 1 102 0
	cmp	w0, 5
	.loc 1 101 0
	str	w1, [x19,236]
	.loc 1 102 0
	bhi	.L130
	adrp	x2, .L140
	add	x2, x2, :lo12:.L140
	ldrb	w0, [x2,w0,uxtw]
	adr	x2, .Lrtx140
	add	x0, x2, w0, sxtb #2
	br	x0
.Lrtx140:
	.section	.rodata
	.align	0
	.align	2
.L140:
	.byte	(.L139 - .Lrtx140) / 4
	.byte	(.L144 - .Lrtx140) / 4
	.byte	(.L142 - .Lrtx140) / 4
	.byte	(.L130 - .Lrtx140) / 4
	.byte	(.L130 - .Lrtx140) / 4
	.byte	(.L143 - .Lrtx140) / 4
	.text
.L144:
	.loc 1 116 0
	mov	w0, 2
	strb	w0, [x19,240]
	b	.L130
.L139:
	.loc 1 104 0
	mov	w0, 1
	strb	w0, [x19,240]
	b	.L130
.L143:
	.loc 1 113 0
	cbnz	w1, .L144
	.loc 1 114 0
	mov	w0, 4
	strb	w0, [x19,240]
	b	.L130
.L142:
	.loc 1 110 0
	mov	w0, 3
	strb	w0, [x19,240]
	b	.L130
.LBE349:
.LBE348:
	.cfi_endproc
.LFE3197:
	.size	hisi_blk_latency_bio_submit_func, .-hisi_blk_latency_bio_submit_func
	.align	2
	.type	hisi_blk_latency_req_init_func, %function
hisi_blk_latency_req_init_func:
.LFB3199:
	.loc 1 165 0
	.cfi_startproc
.LVL166:
	.loc 1 167 0
	ldr	x1, [x0,64]
	cbz	x1, .L159
	.loc 1 167 0 is_stmt 0 discriminator 1
	ldrb	w1, [x1,1176]
	cbz	w1, .L159
.LBB364:
.LBB365:
	.loc 1 170 0 is_stmt 1
	str	xzr, [x0,328]
.LBE365:
.LBE364:
	.loc 1 168 0
	mov	w1, 76
.LBB370:
.LBB368:
	.loc 1 170 0
	str	xzr, [x0,336]
	.loc 1 174 0 discriminator 1
	add	x2, x0, 248
.LBE368:
.LBE370:
	.loc 1 168 0
	strb	w1, [x0,272]
.LBB371:
.LBB369:
	.loc 1 170 0
	str	xzr, [x0,344]
	str	xzr, [x0,352]
	str	xzr, [x0,360]
	str	xzr, [x0,368]
	str	xzr, [x0,376]
	str	xzr, [x0,384]
	str	xzr, [x0,392]
	str	xzr, [x0,400]
	str	xzr, [x0,408]
.LBB366:
.LBB367:
	.loc 5 20 0
#APP
// 20 "/mnt/disk/jenkins/ci/workspace/chipset_TONY_patch_01/opensource/component_code/vendor/huawei/extra/build/build_script/kirin_kernel_release/kernel/arch/arm64/include/asm/current.h" 1
	mrs x1, sp_el0
// 0 "" 2
.LVL167:
#NO_APP
.LBE367:
.LBE366:
	.loc 1 171 0
	str	x1, [x0,232]
	.loc 1 174 0 discriminator 1
	add	x3, x1, 2216
	.loc 1 172 0
	ldr	w4, [x1,1736]
	str	w4, [x0,240]
	.loc 1 173 0
	ldr	w1, [x1,1740]
.LVL168:
	str	w1, [x0,244]
	.loc 1 174 0 discriminator 1
	ldp	x0, x1, [x3]
.LVL169:
	stp	x0, x1, [x2]
.LBE369:
.LBE371:
	.loc 1 180 0
	ret
.LVL170:
.L159:
	.loc 1 176 0
	strb	wzr, [x0,272]
	.loc 1 180 0
	ret
	.cfi_endproc
.LFE3199:
	.size	hisi_blk_latency_req_init_func, .-hisi_blk_latency_req_init_func
	.align	2
	.global	hisi_blk_latency_bio_check
	.type	hisi_blk_latency_bio_check, %function
hisi_blk_latency_bio_check:
.LFB3204:
	.loc 1 267 0
	.cfi_startproc
.LVL171:
	stp	x29, x30, [sp, -32]!
	.cfi_def_cfa_offset 32
	.cfi_offset 29, -32
	.cfi_offset 30, -24
	add	x29, sp, 0
	.cfi_def_cfa_register 29
	stp	x19, x20, [sp,16]
	.cfi_offset 19, -16
	.cfi_offset 20, -8
	.loc 1 268 0
	cbnz	w1, .L177
.L168:
	.loc 1 271 0
	uxtw	x19, w1
.LVL172:
	adrp	x1, .LANCHOR3
	add	x1, x1, :lo12:.LANCHOR3
	mov	x20, x0
	add	x1, x1, x19, lsl 4
	ldr	x1, [x1,8]
	cbz	x1, .L170
	.loc 1 272 0
	blr	x1
.LVL173:
.L170:
	.loc 1 274 0
	add	x19, x19, 18
.LVL174:
	bl	ktime_get
.LVL175:
	add	x19, x20, x19, lsl 3
	str	x0, [x19,8]
.LVL176:
.L167:
	.loc 1 275 0
	ldp	x19, x20, [sp,16]
	.cfi_remember_state
	.cfi_restore 20
	.cfi_restore 19
.LVL177:
	ldp	x29, x30, [sp], 32
	.cfi_restore 30
	.cfi_restore 29
	.cfi_def_cfa 31, 0
	ret
.L177:
	.cfi_restore_state
	.loc 1 268 0 discriminator 1
	ldrb	w2, [x0,145]
	cmp	w2, 76
	beq	.L168
	b	.L167
	.cfi_endproc
.LFE3204:
	.size	hisi_blk_latency_bio_check, .-hisi_blk_latency_bio_check
	.align	2
	.global	hisi_blk_latency_req_check
	.type	hisi_blk_latency_req_check, %function
hisi_blk_latency_req_check:
.LFB3205:
	.loc 1 281 0
	.cfi_startproc
.LVL178:
	stp	x29, x30, [sp, -32]!
	.cfi_def_cfa_offset 32
	.cfi_offset 29, -32
	.cfi_offset 30, -24
	add	x29, sp, 0
	.cfi_def_cfa_register 29
	stp	x19, x20, [sp,16]
	.cfi_offset 19, -16
	.cfi_offset 20, -8
	.loc 1 282 0
	cbnz	w1, .L188
.L179:
	.loc 1 286 0
	uxtw	x19, w1
.LVL179:
	adrp	x1, .LANCHOR3
	add	x1, x1, :lo12:.LANCHOR3
	mov	x20, x0
	add	x1, x1, x19, lsl 4
	ldr	x1, [x1,72]
	cbz	x1, .L181
	.loc 1 287 0
	blr	x1
.LVL180:
.L181:
	.loc 1 289 0
	add	x19, x19, 40
.LVL181:
	bl	ktime_get
.LVL182:
	add	x19, x20, x19, lsl 3
	str	x0, [x19,8]
.LVL183:
.L178:
	.loc 1 290 0
	ldp	x19, x20, [sp,16]
	.cfi_remember_state
	.cfi_restore 20
	.cfi_restore 19
.LVL184:
	ldp	x29, x30, [sp], 32
	.cfi_restore 30
	.cfi_restore 29
	.cfi_def_cfa 31, 0
	ret
.L188:
	.cfi_restore_state
	.loc 1 282 0 discriminator 1
	ldrb	w2, [x0,272]
	cmp	w2, 76
	beq	.L179
	b	.L178
	.cfi_endproc
.LFE3205:
	.size	hisi_blk_latency_req_check, .-hisi_blk_latency_req_check
	.align	2
	.global	hisi_blk_latency_writeback_bio
	.type	hisi_blk_latency_writeback_bio, %function
hisi_blk_latency_writeback_bio:
.LFB3206:
	.loc 1 296 0
	.cfi_startproc
.LVL185:
	.loc 1 297 0
	ldrb	w2, [x1,240]
	cbnz	w2, .L201
.L189:
	.loc 1 300 0
	ret
.L201:
	.loc 1 297 0 discriminator 1
	ldrb	w2, [x0,273]
	cbz	w2, .L189
	.loc 1 298 0
	ldr	x2, [x0,64]
	.loc 1 299 0
	cbz	x2, .L192
	.loc 1 298 0
	ldrb	w3, [x2,1176]
	.loc 1 299 0 discriminator 1
	mov	x2, 0
	.loc 1 298 0
	cbz	w3, .L191
.LBB372:
.LBB373:
	.loc 8 232 0
	mov	x5, 51712
.LBE373:
.LBE372:
.LBB376:
.LBB377:
	ldr	x4, [x0,296]
	mov	x2, x5
	ldr	x6, [x0,304]
.LBE377:
.LBE376:
.LBB379:
.LBB374:
	ldr	x3, [x0,312]
	movk	x5, 0x3b9a, lsl 16
	ldr	x7, [x0,320]
.LBE374:
.LBE379:
.LBB380:
.LBB378:
	movk	x2, 0x3b9a, lsl 16
	madd	x2, x4, x2, x6
.LBE378:
.LBE380:
.LBB381:
.LBB375:
	madd	x0, x3, x5, x7
.LVL186:
.LBE375:
.LBE381:
	.loc 1 299 0
	sub	x2, x0, x2
.LVL187:
.L191:
	.loc 1 298 0
	str	x2, [x1,264]
.L202:
	.loc 1 300 0
	ret
.L192:
	.loc 1 299 0 discriminator 1
	mov	x2, 0
	.loc 1 298 0
	str	x2, [x1,264]
	b	.L202
	.cfi_endproc
.LFE3206:
	.size	hisi_blk_latency_writeback_bio, .-hisi_blk_latency_writeback_bio
	.align	2
	.global	hisi_blk_latency_for_merge
	.type	hisi_blk_latency_for_merge, %function
hisi_blk_latency_for_merge:
.LFB3207:
	.loc 1 306 0
	.cfi_startproc
.LVL188:
	.loc 1 308 0
	ldr	x1, [x1,120]
.LVL189:
	.loc 1 309 0
	cbz	x1, .L203
.L207:
	.loc 1 310 0
	str	x0, [x1,104]
	.loc 1 311 0
	ldr	x1, [x1]
	.loc 1 309 0
	cbnz	x1, .L207
.L203:
	.loc 1 313 0
	ret
	.cfi_endproc
.LFE3207:
	.size	hisi_blk_latency_for_merge, .-hisi_blk_latency_for_merge
	.align	2
	.global	hisi_blk_queue_latency_average_calc
	.type	hisi_blk_queue_latency_average_calc, %function
hisi_blk_queue_latency_average_calc:
.LFB3211:
	.loc 1 404 0
	.cfi_startproc
.LVL190:
	stp	x29, x30, [sp, -32]!
	.cfi_def_cfa_offset 32
	.cfi_offset 29, -32
	.cfi_offset 30, -24
	add	x29, sp, 0
	.cfi_def_cfa_register 29
	str	x19, [sp,16]
	.cfi_offset 19, -16
	.loc 1 404 0
	mov	x19, x0
	.loc 1 405 0
	add	x1, x19, 1208
	add	x0, x0, 1640
.LVL191:
	bl	__hisi_blk_queue_latency_average_calc
.LVL192:
	.loc 1 407 0
	add	x1, x19, 4096
	add	x0, x1, 1456
	add	x1, x1, 1024
	bl	__hisi_blk_queue_latency_average_calc
.LVL193:
	.loc 1 409 0
	add	x1, x19, 8192
	add	x0, x1, 1272
	add	x1, x1, 840
	bl	__hisi_blk_queue_latency_average_calc
.LVL194:
	.loc 1 411 0
	ldr	x19, [sp,16]
	.cfi_restore 19
.LVL195:
	ldp	x29, x30, [sp], 32
	.cfi_restore 30
	.cfi_restore 29
	.cfi_def_cfa 31, 0
	ret
	.cfi_endproc
.LFE3211:
	.size	hisi_blk_queue_latency_average_calc, .-hisi_blk_queue_latency_average_calc
	.align	2
	.global	hisi_blk_queue_latency_statistic_clear
	.type	hisi_blk_queue_latency_statistic_clear, %function
hisi_blk_queue_latency_statistic_clear:
.LFB3212:
	.loc 1 414 0
	.cfi_startproc
.LVL196:
	.loc 1 417 0
	mov	x2, 0
	.loc 1 416 0
	add	x4, x0, 1424
	.loc 1 417 0
	add	x3, x0, 1208
	.loc 1 415 0
	add	x1, x0, 1640
.L211:
	add	x1, x1, 128
.LBB382:
.LBB383:
	.loc 1 397 0
	str	xzr, [x4,x2]
	str	xzr, [x3,x2]
	add	x2, x2, 8
	.loc 1 396 0 discriminator 1
	cmp	x2, 216
	.loc 1 399 0
	str	xzr, [x1,-128]
	str	xzr, [x1,-120]
	str	xzr, [x1,-112]
	str	xzr, [x1,-104]
	str	xzr, [x1,-96]
	str	xzr, [x1,-88]
	str	xzr, [x1,-80]
	str	xzr, [x1,-72]
	str	xzr, [x1,-64]
	str	xzr, [x1,-56]
	str	xzr, [x1,-48]
	str	xzr, [x1,-40]
	str	xzr, [x1,-32]
	str	xzr, [x1,-24]
	str	xzr, [x1,-16]
	str	xzr, [x1,-8]
	.loc 1 396 0 discriminator 1
	bne	.L211
.LBE383:
.LBE382:
	.loc 1 419 0
	add	x1, x0, 4096
	.loc 1 420 0
	mov	x2, 0
	.loc 1 419 0
	add	x4, x1, 1240
	.loc 1 420 0
	add	x3, x1, 1024
	.loc 1 418 0
	add	x1, x1, 1456
.L212:
	add	x1, x1, 128
.LBB384:
.LBB385:
	.loc 1 397 0
	str	xzr, [x4,x2]
	str	xzr, [x3,x2]
	add	x2, x2, 8
	.loc 1 396 0 discriminator 1
	cmp	x2, 216
	.loc 1 399 0
	str	xzr, [x1,-128]
	str	xzr, [x1,-120]
	str	xzr, [x1,-112]
	str	xzr, [x1,-104]
	str	xzr, [x1,-96]
	str	xzr, [x1,-88]
	str	xzr, [x1,-80]
	str	xzr, [x1,-72]
	str	xzr, [x1,-64]
	str	xzr, [x1,-56]
	str	xzr, [x1,-48]
	str	xzr, [x1,-40]
	str	xzr, [x1,-32]
	str	xzr, [x1,-24]
	str	xzr, [x1,-16]
	str	xzr, [x1,-8]
	.loc 1 396 0 discriminator 1
	bne	.L212
.LBE385:
.LBE384:
	.loc 1 422 0
	add	x0, x0, 8192
.LVL197:
	.loc 1 423 0
	mov	x1, 0
	.loc 1 422 0
	add	x3, x0, 1056
	.loc 1 423 0
	add	x2, x0, 840
	.loc 1 421 0
	add	x0, x0, 1272
.L213:
	add	x0, x0, 128
.LBB386:
.LBB387:
	.loc 1 397 0
	str	xzr, [x3,x1]
	str	xzr, [x2,x1]
	add	x1, x1, 8
	.loc 1 396 0 discriminator 1
	cmp	x1, 216
	.loc 1 399 0
	str	xzr, [x0,-128]
	str	xzr, [x0,-120]
	str	xzr, [x0,-112]
	str	xzr, [x0,-104]
	str	xzr, [x0,-96]
	str	xzr, [x0,-88]
	str	xzr, [x0,-80]
	str	xzr, [x0,-72]
	str	xzr, [x0,-64]
	str	xzr, [x0,-56]
	str	xzr, [x0,-48]
	str	xzr, [x0,-40]
	str	xzr, [x0,-32]
	str	xzr, [x0,-24]
	str	xzr, [x0,-16]
	str	xzr, [x0,-8]
	.loc 1 396 0 discriminator 1
	bne	.L213
.LBE387:
.LBE386:
	.loc 1 424 0
	ret
	.cfi_endproc
.LFE3212:
	.size	hisi_blk_queue_latency_statistic_clear, .-hisi_blk_queue_latency_statistic_clear
	.align	2
	.global	hisi_blk_queue_latency_init
	.type	hisi_blk_queue_latency_init, %function
hisi_blk_queue_latency_init:
.LFB3213:
	.loc 1 427 0
	.cfi_startproc
.LVL198:
	stp	x29, x30, [sp, -48]!
	.cfi_def_cfa_offset 48
	.cfi_offset 29, -48
	.cfi_offset 30, -40
	add	x29, sp, 0
	.cfi_def_cfa_register 29
	stp	x19, x20, [sp,16]
	.cfi_offset 19, -32
	.cfi_offset 20, -24
.LBB388:
	.loc 1 429 0 discriminator 1
	adrp	x20, .LANCHOR1
.LBE388:
	.loc 1 427 0
	mov	x19, x0
	str	x21, [sp,32]
	.cfi_offset 21, -16
.LBB389:
	.loc 1 429 0 discriminator 1
	add	x20, x20, :lo12:.LANCHOR1
.LBE389:
	.loc 1 428 0
	bl	hisi_blk_get_lld
.LVL199:
.LBB390:
	.loc 1 429 0 discriminator 1
	add	x20, x20, 32
	adrp	x1, .LC13
.LBE390:
	.loc 1 428 0
	mov	x21, x0
.LVL200:
.LBB391:
	.loc 1 429 0 discriminator 1
	add	x1, x1, :lo12:.LC13
	add	x0, x19, 1184
	mov	x2, x20
	bl	__raw_spin_lock_init
.LVL201:
.LBE391:
.LBB392:
	.loc 1 430 0
	add	x0, x19, 4096
	.loc 1 430 0 is_stmt 0 discriminator 1
	adrp	x1, .LC14
	add	x0, x0, 1000
	add	x1, x1, :lo12:.LC14
	mov	x2, x20
	bl	__raw_spin_lock_init
.LVL202:
.LBE392:
.LBB393:
	.loc 1 431 0 is_stmt 1
	add	x0, x19, 8192
	.loc 1 431 0 is_stmt 0 discriminator 1
	adrp	x1, .LC15
	mov	x2, x20
	add	x1, x1, :lo12:.LC15
	add	x0, x0, 816
	bl	__raw_spin_lock_init
.LVL203:
.LBE393:
	.loc 1 432 0 is_stmt 1
	mov	x0, x19
	bl	hisi_blk_queue_latency_statistic_clear
.LVL204:
	.loc 1 433 0
	ldr	w0, [x21,48]
	cbnz	w0, .L218
	.loc 1 434 0
	mov	w0, 2000
	str	w0, [x21,48]
.L218:
	.loc 1 435 0
	str	w0, [x19,1180]
	.loc 1 436 0
	ldr	x0, [x21,24]
	ubfx	x0, x0, 1, 1
	strb	w0, [x19,1176]
	.loc 1 437 0
	ldr	x0, [x21,24]
	ubfx	x0, x0, 2, 1
	strb	w0, [x19,1177]
	.loc 1 438 0
	ldp	x19, x20, [sp,16]
	.cfi_restore 20
	.cfi_restore 19
.LVL205:
	ldr	x21, [sp,32]
	.cfi_restore 21
.LVL206:
	ldp	x29, x30, [sp], 48
	.cfi_restore 30
	.cfi_restore 29
	.cfi_def_cfa 31, 0
	ret
	.cfi_endproc
.LFE3213:
	.size	hisi_blk_queue_latency_init, .-hisi_blk_queue_latency_init
	.section	.init.text,"ax",%progbits
	.align	2
	.global	hisi_blk_latency_init
	.type	hisi_blk_latency_init, %function
hisi_blk_latency_init:
.LFB3214:
	.loc 1 441 0
	.cfi_startproc
	stp	x29, x30, [sp, -32]!
	.cfi_def_cfa_offset 32
	.cfi_offset 29, -32
	.cfi_offset 30, -24
.LBB394:
	.loc 1 442 0 discriminator 1
	adrp	x1, .LC16
.LBE394:
	.loc 1 441 0
	add	x29, sp, 0
	.cfi_def_cfa_register 29
	str	x19, [sp,16]
	.cfi_offset 19, -16
.LBB395:
	.loc 1 442 0 discriminator 1
	adrp	x19, .LANCHOR1
	add	x19, x19, :lo12:.LANCHOR1
	add	x1, x1, :lo12:.LC16
	mov	x0, x19
	add	x2, x19, 32
	bl	__raw_spin_lock_init
.LVL207:
.LBE395:
.LBB396:
.LBB397:
.LBB398:
	.loc 6 275 0
	str	wzr, [x19,24]
.LBE398:
.LBE397:
.LBE396:
	.loc 1 445 0
	bl	iowp_workqueue_init
.LVL208:
	.loc 1 447 0
	ldr	x19, [sp,16]
	.cfi_restore 19
	ldp	x29, x30, [sp], 32
	.cfi_restore 30
	.cfi_restore 29
	.cfi_def_cfa 31, 0
	ret
	.cfi_endproc
.LFE3214:
	.size	hisi_blk_latency_init, .-hisi_blk_latency_init
	.text
	.align	2
	.global	hisi_queue_io_latency_warning_threshold_store
	.type	hisi_queue_io_latency_warning_threshold_store, %function
hisi_queue_io_latency_warning_threshold_store:
.LFB3222:
	.loc 1 528 0
	.cfi_startproc
.LVL209:
	stp	x29, x30, [sp, -64]!
	.cfi_def_cfa_offset 64
	.cfi_offset 29, -64
	.cfi_offset 30, -56
	add	x29, sp, 0
	.cfi_def_cfa_register 29
	stp	x19, x20, [sp,16]
	.cfi_offset 19, -48
	.cfi_offset 20, -40
	adrp	x19, __stack_chk_guard
	mov	x20, x2
	stp	x21, x22, [sp,32]
	.cfi_offset 21, -32
	.cfi_offset 22, -24
	.loc 1 528 0
	mov	x21, x0
	.loc 1 531 0
	add	x0, x29, 48
.LVL210:
	.loc 1 528 0
	ldr	x3, [x19,#:lo12:__stack_chk_guard]
	str	x3, [x29,56]
	.loc 1 531 0
	bl	queue_var_store
.LVL211:
	.loc 1 532 0
	tbz	x0, #63, .L232
.LVL212:
.L221:
	.loc 1 538 0
	ldr	x2, [x29,56]
	mov	x0, x20
	ldr	x1, [x19,#:lo12:__stack_chk_guard]
	cmp	x2, x1
	bne	.L233
	ldp	x19, x20, [sp,16]
	.cfi_remember_state
	.cfi_restore 20
	.cfi_restore 19
.LVL213:
	ldp	x21, x22, [sp,32]
	.cfi_restore 22
	.cfi_restore 21
.LVL214:
	ldp	x29, x30, [sp], 64
	.cfi_restore 30
	.cfi_restore 29
	.cfi_def_cfa 31, 0
	ret
.LVL215:
.L232:
	.cfi_restore_state
	.loc 1 533 0
	adrp	x1, .LANCHOR3
.LVL216:
	ldr	x2, [x29,48]
	add	x1, x1, :lo12:.LANCHOR3
	adrp	x0, .LC17
	add	x1, x1, 240
	add	x0, x0, :lo12:.LC17
	bl	printk
.LVL217:
	.loc 1 534 0
	ldr	x1, [x29,48]
.LBB403:
.LBB404:
	.loc 1 496 0
	mov	x0, x21
.LBE404:
.LBE403:
	.loc 1 534 0
	cmp	x1, xzr
	cset	w22, ne
.LBB407:
.LBB405:
	.loc 1 496 0
	bl	hisi_blk_get_lld
.LVL218:
	.loc 1 497 0
	ldrb	w1, [x21,1176]
	cmp	w22, w1
	beq	.L223
	.loc 1 499 0
	strb	w22, [x21,1176]
.LVL219:
	.loc 1 501 0
	ldr	x1, [x0,24]
	.loc 1 500 0
	cbz	w22, .L224
	.loc 1 501 0
	orr	x1, x1, 2
.L225:
	str	x1, [x0,24]
	.loc 1 504 0
	ldrb	w0, [x21,1176]
.LVL220:
	cbz	w0, .L223
	.loc 1 505 0
	mov	x0, x21
	bl	hisi_blk_queue_latency_statistic_clear
.LVL221:
.L223:
.LBE405:
.LBE407:
.LBB408:
.LBB409:
	.loc 1 522 0
	mov	x0, x21
.LBE409:
.LBE408:
	.loc 1 535 0
	ldr	x21, [x29,48]
.LVL222:
.LBB411:
.LBB410:
	.loc 1 522 0
	bl	hisi_blk_get_lld
.LVL223:
	.loc 1 524 0 discriminator 2
	cmp	w21, wzr
	mov	w2, 2000
	csel	w1, w21, w2, ne
.LVL224:
	.loc 1 523 0
	str	w1, [x0,48]
	b	.L221
.LVL225:
.L233:
.LBE410:
.LBE411:
	.loc 1 538 0
	bl	__stack_chk_fail
.LVL226:
.L224:
.LBB412:
.LBB406:
	.loc 1 503 0
	and	x1, x1, -3
	b	.L225
.LBE406:
.LBE412:
	.cfi_endproc
.LFE3222:
	.size	hisi_queue_io_latency_warning_threshold_store, .-hisi_queue_io_latency_warning_threshold_store
	.align	2
	.global	hisi_queue_io_latency_statistic_enable_store
	.type	hisi_queue_io_latency_statistic_enable_store, %function
hisi_queue_io_latency_statistic_enable_store:
.LFB3223:
	.loc 1 541 0
	.cfi_startproc
.LVL227:
	stp	x29, x30, [sp, -64]!
	.cfi_def_cfa_offset 64
	.cfi_offset 29, -64
	.cfi_offset 30, -56
	add	x29, sp, 0
	.cfi_def_cfa_register 29
	stp	x19, x20, [sp,16]
	.cfi_offset 19, -48
	.cfi_offset 20, -40
	adrp	x20, __stack_chk_guard
	mov	x19, x0
	.loc 1 544 0
	add	x0, x29, 48
.LVL228:
	.loc 1 541 0
	str	x21, [sp,32]
	.cfi_offset 21, -32
	.loc 1 541 0
	mov	x21, x2
	ldr	x3, [x20,#:lo12:__stack_chk_guard]
	str	x3, [x29,56]
	.loc 1 544 0
	bl	queue_var_store
.LVL229:
	.loc 1 545 0
	tbnz	x0, #63, .L235
.LVL230:
	.loc 1 545 0 is_stmt 0 discriminator 1
	ldr	x0, [x29,48]
	cbnz	x0, .L243
.L235:
	.loc 1 549 0 is_stmt 1
	adrp	x1, .LANCHOR3
	adrp	x0, .LC19
	add	x1, x1, :lo12:.LANCHOR3
	add	x0, x0, :lo12:.LC19
	add	x1, x1, 288
	bl	printk
.LVL231:
.LBB417:
.LBB418:
	.loc 1 510 0
	mov	x0, x19
	bl	hisi_blk_get_lld
.LVL232:
	.loc 1 511 0 discriminator 4
	strb	wzr, [x19,1177]
.LVL233:
	.loc 1 515 0
	ldr	x1, [x0,24]
	and	x1, x1, -5
	str	x1, [x0,24]
	.loc 1 516 0
	ldrb	w0, [x19,1177]
.LVL234:
	cbnz	w0, .L236
.L237:
.LBE418:
.LBE417:
	.loc 1 553 0
	ldr	x2, [x29,56]
	mov	x0, x21
	ldr	x1, [x20,#:lo12:__stack_chk_guard]
	cmp	x2, x1
	bne	.L244
	ldp	x19, x20, [sp,16]
	.cfi_remember_state
	.cfi_restore 20
	.cfi_restore 19
.LVL235:
	ldr	x21, [sp,32]
	.cfi_restore 21
.LVL236:
	ldp	x29, x30, [sp], 64
	.cfi_restore 30
	.cfi_restore 29
	.cfi_def_cfa 31, 0
	ret
.LVL237:
.L243:
	.cfi_restore_state
	.loc 1 546 0
	adrp	x1, .LANCHOR3
	adrp	x0, .LC18
.LVL238:
	add	x1, x1, :lo12:.LANCHOR3
	add	x0, x0, :lo12:.LC18
	add	x1, x1, 288
	bl	printk
.LVL239:
.LBB419:
.LBB420:
	.loc 1 510 0
	mov	x0, x19
	bl	hisi_blk_get_lld
.LVL240:
	.loc 1 511 0 discriminator 4
	ldrb	w1, [x19,1176]
	strb	w1, [x19,1177]
.LVL241:
	.loc 1 513 0
	ldr	x1, [x0,24]
	orr	x1, x1, 4
	str	x1, [x0,24]
	.loc 1 516 0
	ldrb	w0, [x19,1177]
.LVL242:
	cbz	w0, .L237
.L236:
	.loc 1 517 0
	mov	x0, x19
	bl	hisi_blk_queue_latency_statistic_clear
.LVL243:
	b	.L237
.L244:
.LBE420:
.LBE419:
	.loc 1 553 0
	bl	__stack_chk_fail
.LVL244:
	.cfi_endproc
.LFE3223:
	.size	hisi_queue_io_latency_statistic_enable_store, .-hisi_queue_io_latency_statistic_enable_store
	.align	2
	.global	hisi_queue_io_latency_statistic_show
	.type	hisi_queue_io_latency_statistic_show, %function
hisi_queue_io_latency_statistic_show:
.LFB3225:
	.loc 1 581 0
	.cfi_startproc
.LVL245:
	stp	x29, x30, [sp, -64]!
	.cfi_def_cfa_offset 64
	.cfi_offset 29, -64
	.cfi_offset 30, -56
.LBB423:
.LBB424:
	.loc 1 406 0
	add	x3, x0, 1208
.LBE424:
.LBE423:
	.loc 1 581 0
	add	x29, sp, 0
	.cfi_def_cfa_register 29
	stp	x19, x20, [sp,16]
	.cfi_offset 19, -48
	.cfi_offset 20, -40
.LBB428:
.LBB425:
	.loc 1 405 0
	add	x20, x0, 1640
.LBE425:
.LBE428:
	.loc 1 581 0
	mov	x19, x0
	str	x21, [sp,32]
	.cfi_offset 21, -32
.LBB429:
.LBB426:
	.loc 1 405 0
	mov	x0, x20
.LVL246:
.LBE426:
.LBE429:
	.loc 1 581 0
	mov	x21, x1
.LBB430:
.LBB427:
	.loc 1 405 0
	mov	x1, x3
.LVL247:
	str	x3, [x29,56]
	bl	__hisi_blk_queue_latency_average_calc
.LVL248:
	.loc 1 407 0
	add	x1, x19, 4096
	add	x0, x1, 1456
	add	x1, x1, 1024
	bl	__hisi_blk_queue_latency_average_calc
.LVL249:
	.loc 1 409 0
	add	x1, x19, 8192
	add	x0, x1, 1272
	add	x1, x1, 840
	bl	__hisi_blk_queue_latency_average_calc
.LVL250:
.LBE427:
.LBE430:
	.loc 1 583 0
	ldr	x3, [x29,56]
	mov	x1, x20
	add	x2, x19, 1424
	mov	x0, x21
	bl	hisi_queue_io_latency_statistic_result_display
.LVL251:
	.loc 1 585 0
	ldr	x21, [sp,32]
	.cfi_restore 21
.LVL252:
	ldp	x19, x20, [sp,16]
	.cfi_restore 20
	.cfi_restore 19
.LVL253:
	ldp	x29, x30, [sp], 64
	.cfi_restore 30
	.cfi_restore 29
	.cfi_def_cfa 31, 0
	ret
	.cfi_endproc
.LFE3225:
	.size	hisi_queue_io_latency_statistic_show, .-hisi_queue_io_latency_statistic_show
	.align	2
	.global	hisi_queue_io_hw_latency_statistic_show
	.type	hisi_queue_io_hw_latency_statistic_show, %function
hisi_queue_io_hw_latency_statistic_show:
.LFB3226:
	.loc 1 588 0
	.cfi_startproc
.LVL254:
	stp	x29, x30, [sp, -16]!
	.cfi_def_cfa_offset 16
	.cfi_offset 29, -16
	.cfi_offset 30, -8
	.loc 1 589 0
	add	x3, x0, 4096
	mov	x0, x1
.LVL255:
	.loc 1 588 0
	add	x29, sp, 0
	.cfi_def_cfa_register 29
	.loc 1 589 0
	add	x2, x3, 1240
	add	x1, x3, 1456
.LVL256:
	add	x3, x3, 1024
	.loc 1 588 0
	.loc 1 589 0
	bl	hisi_queue_io_latency_statistic_result_display
.LVL257:
	.loc 1 591 0
	ldp	x29, x30, [sp], 16
	.cfi_restore 30
	.cfi_restore 29
	.cfi_def_cfa 31, 0
	ret
	.cfi_endproc
.LFE3226:
	.size	hisi_queue_io_hw_latency_statistic_show, .-hisi_queue_io_hw_latency_statistic_show
	.align	2
	.global	hisi_queue_io_sw_latency_statistic_show
	.type	hisi_queue_io_sw_latency_statistic_show, %function
hisi_queue_io_sw_latency_statistic_show:
.LFB3227:
	.loc 1 594 0
	.cfi_startproc
.LVL258:
	stp	x29, x30, [sp, -16]!
	.cfi_def_cfa_offset 16
	.cfi_offset 29, -16
	.cfi_offset 30, -8
	.loc 1 595 0
	add	x3, x0, 8192
	mov	x0, x1
.LVL259:
	.loc 1 594 0
	add	x29, sp, 0
	.cfi_def_cfa_register 29
	.loc 1 595 0
	add	x2, x3, 1056
	add	x1, x3, 1272
.LVL260:
	add	x3, x3, 840
	.loc 1 594 0
	.loc 1 595 0
	bl	hisi_queue_io_latency_statistic_result_display
.LVL261:
	.loc 1 597 0
	ldp	x29, x30, [sp], 16
	.cfi_restore 30
	.cfi_restore 29
	.cfi_def_cfa 31, 0
	ret
	.cfi_endproc
.LFE3227:
	.size	hisi_queue_io_sw_latency_statistic_show, .-hisi_queue_io_sw_latency_statistic_show
	.global	latency_grouping_cfg
	.global	length_grouping_cfg
	.global	req_stage_cfg
	.global	bio_stage_cfg
	.global	blk_latency_log_ratelimit_state
	.section	.rodata
	.align	3
.LANCHOR2 = . + 0
	.type	__func__.40006, %object
	.size	__func__.40006, 36
__func__.40006:
	.string	"hisi_blk_latency_check_timer_expire"
	.zero	4
	.type	length_grouping_cfg, %object
	.size	length_grouping_cfg, 672
length_grouping_cfg:
	.byte	1
	.zero	3
	.word	1
	.word	0
	.zero	4
	.xword	.LC20
	.byte	1
	.zero	3
	.word	2
	.word	1
	.zero	4
	.xword	.LC21
	.byte	1
	.zero	3
	.word	4
	.word	2
	.zero	4
	.xword	.LC22
	.byte	1
	.zero	3
	.word	8
	.word	3
	.zero	4
	.xword	.LC23
	.byte	1
	.zero	3
	.word	16
	.word	4
	.zero	4
	.xword	.LC24
	.byte	1
	.zero	3
	.word	32
	.word	5
	.zero	4
	.xword	.LC25
	.byte	1
	.zero	3
	.word	64
	.word	6
	.zero	4
	.xword	.LC26
	.byte	1
	.zero	3
	.word	128
	.word	7
	.zero	4
	.xword	.LC27
	.byte	1
	.zero	3
	.word	256
	.word	8
	.zero	4
	.xword	.LC28
	.byte	2
	.zero	3
	.word	1
	.word	9
	.zero	4
	.xword	.LC29
	.byte	2
	.zero	3
	.word	2
	.word	10
	.zero	4
	.xword	.LC30
	.byte	2
	.zero	3
	.word	4
	.word	11
	.zero	4
	.xword	.LC31
	.byte	2
	.zero	3
	.word	8
	.word	12
	.zero	4
	.xword	.LC32
	.byte	2
	.zero	3
	.word	16
	.word	13
	.zero	4
	.xword	.LC33
	.byte	2
	.zero	3
	.word	32
	.word	14
	.zero	4
	.xword	.LC34
	.byte	2
	.zero	3
	.word	64
	.word	15
	.zero	4
	.xword	.LC35
	.byte	2
	.zero	3
	.word	128
	.word	16
	.zero	4
	.xword	.LC36
	.byte	2
	.zero	3
	.word	256
	.word	17
	.zero	4
	.xword	.LC37
	.byte	3
	.zero	3
	.word	1
	.word	18
	.zero	4
	.xword	.LC38
	.byte	3
	.zero	3
	.word	32
	.word	19
	.zero	4
	.xword	.LC39
	.byte	3
	.zero	3
	.word	256
	.word	20
	.zero	4
	.xword	.LC40
	.byte	3
	.zero	3
	.word	512
	.word	21
	.zero	4
	.xword	.LC41
	.byte	3
	.zero	3
	.word	2048
	.word	22
	.zero	4
	.xword	.LC42
	.byte	3
	.zero	3
	.word	4096
	.word	23
	.zero	4
	.xword	.LC43
	.byte	3
	.zero	3
	.word	8192
	.word	24
	.zero	4
	.xword	.LC44
	.byte	3
	.zero	3
	.word	0
	.word	25
	.zero	4
	.xword	.LC45
	.byte	4
	.zero	3
	.word	0
	.word	26
	.zero	4
	.xword	.LC46
	.byte	0
	.zero	3
	.word	0
	.word	27
	.zero	4
	.xword	.LC47
	.type	__func__.39971, %object
	.size	__func__.39971, 32
__func__.39971:
	.string	"hisi_blk_latency_bio_endio_func"
	.align	3
.LANCHOR3 = . + 0
	.type	bio_stage_cfg, %object
	.size	bio_stage_cfg, 64
bio_stage_cfg:
	.xword	.LC59
	.xword	hisi_blk_latency_bio_submit_func
	.xword	.LC60
	.xword	hisi_blk_latency_bio_endio_func
	.xword	.LC61
	.xword	0
	.xword	.LC62
	.xword	0
	.type	req_stage_cfg, %object
	.size	req_stage_cfg, 176
req_stage_cfg:
	.xword	.LC48
	.xword	hisi_blk_latency_req_init_func
	.xword	.LC49
	.xword	hisi_blk_latency_req_start_func
	.xword	.LC50
	.xword	0
	.xword	.LC51
	.xword	0
	.xword	.LC52
	.xword	0
	.xword	.LC53
	.xword	0
	.xword	.LC54
	.xword	0
	.xword	.LC55
	.xword	0
	.xword	.LC56
	.xword	0
	.xword	.LC57
	.xword	hisi_blk_latency_req_update_func
	.xword	.LC58
	.xword	hisi_blk_latency_req_free_func
	.type	__func__.40165, %object
	.size	__func__.40165, 46
__func__.40165:
	.string	"hisi_queue_io_latency_warning_threshold_store"
	.zero	2
	.type	__func__.40173, %object
	.size	__func__.40173, 45
__func__.40173:
	.string	"hisi_queue_io_latency_statistic_enable_store"
	.section	___ksymtab+blk_queue_latency_statistic_set,"a",%progbits
	.align	3
	.type	__ksymtab_blk_queue_latency_statistic_set, %object
	.size	__ksymtab_blk_queue_latency_statistic_set, 16
__ksymtab_blk_queue_latency_statistic_set:
	.xword	blk_queue_latency_statistic_set
	.xword	__kstrtab_blk_queue_latency_statistic_set
	.section	___ksymtab+blk_queue_latency_warning_set,"a",%progbits
	.align	3
	.type	__ksymtab_blk_queue_latency_warning_set, %object
	.size	__ksymtab_blk_queue_latency_warning_set, 16
__ksymtab_blk_queue_latency_warning_set:
	.xword	blk_queue_latency_warning_set
	.xword	__kstrtab_blk_queue_latency_warning_set
	.section	__ksymtab_strings,"a",%progbits
	.type	__kstrtab_blk_queue_latency_statistic_set, %object
	.size	__kstrtab_blk_queue_latency_statistic_set, 32
__kstrtab_blk_queue_latency_statistic_set:
	.string	"blk_queue_latency_statistic_set"
	.type	__kstrtab_blk_mq_tagset_latency_statistic_set, %object
	.size	__kstrtab_blk_mq_tagset_latency_statistic_set, 36
__kstrtab_blk_mq_tagset_latency_statistic_set:
	.string	"blk_mq_tagset_latency_statistic_set"
	.type	__kstrtab_blk_queue_latency_warning_set, %object
	.size	__kstrtab_blk_queue_latency_warning_set, 30
__kstrtab_blk_queue_latency_warning_set:
	.string	"blk_queue_latency_warning_set"
	.type	__kstrtab_blk_mq_tagset_latency_warning_set, %object
	.size	__kstrtab_blk_mq_tagset_latency_warning_set, 34
__kstrtab_blk_mq_tagset_latency_warning_set:
	.string	"blk_mq_tagset_latency_warning_set"
	.data
	.align	3
.LANCHOR0 = . + 0
	.type	latency_grouping_cfg, %object
	.size	latency_grouping_cfg, 128
latency_grouping_cfg:
	.xword	10
	.xword	25
	.xword	50
	.xword	100
	.xword	150
	.xword	200
	.xword	300
	.xword	500
	.xword	1000
	.xword	2500
	.xword	5000
	.xword	7500
	.xword	10000
	.xword	15000
	.xword	50000
	.xword	0
	.type	blk_latency_log_ratelimit_state, %object
	.size	blk_latency_log_ratelimit_state, 56
blk_latency_log_ratelimit_state:
	.hword	0
	.hword	0
	.word	-559067475
	.word	-1
	.zero	4
	.xword	-1
	.word	750
	.word	5
	.zero	24
	.section	___kcrctab+blk_mq_tagset_latency_statistic_set,"a",%progbits
	.align	3
	.type	__kcrctab_blk_mq_tagset_latency_statistic_set, %object
	.size	__kcrctab_blk_mq_tagset_latency_statistic_set, 8
__kcrctab_blk_mq_tagset_latency_statistic_set:
	.xword	__crc_blk_mq_tagset_latency_statistic_set
	.section	___ksymtab+blk_mq_tagset_latency_warning_set,"a",%progbits
	.align	3
	.type	__ksymtab_blk_mq_tagset_latency_warning_set, %object
	.size	__ksymtab_blk_mq_tagset_latency_warning_set, 16
__ksymtab_blk_mq_tagset_latency_warning_set:
	.xword	blk_mq_tagset_latency_warning_set
	.xword	__kstrtab_blk_mq_tagset_latency_warning_set
	.section	___kcrctab+blk_queue_latency_warning_set,"a",%progbits
	.align	3
	.type	__kcrctab_blk_queue_latency_warning_set, %object
	.size	__kcrctab_blk_queue_latency_warning_set, 8
__kcrctab_blk_queue_latency_warning_set:
	.xword	__crc_blk_queue_latency_warning_set
	.section	___ksymtab+blk_mq_tagset_latency_statistic_set,"a",%progbits
	.align	3
	.type	__ksymtab_blk_mq_tagset_latency_statistic_set, %object
	.size	__ksymtab_blk_mq_tagset_latency_statistic_set, 16
__ksymtab_blk_mq_tagset_latency_statistic_set:
	.xword	blk_mq_tagset_latency_statistic_set
	.xword	__kstrtab_blk_mq_tagset_latency_statistic_set
	.section	.rodata.str1.8,"aMS",%progbits,1
	.align	3
.LC0:
	.string	"\0013[BLK-IO]%s %d Invalid fs_io_flag: 0x%x\n"
	.zero	6
.LC1:
	.string	"\0013[BLK-IO]%s %d Invalid request queue !\n"
	.zero	7
.LC2:
	.string	"io latency"
	.zero	5
.LC3:
	.string	"(%s)\t"
	.zero	2
.LC4:
	.string	"us"
	.zero	5
.LC5:
	.string	"%lld\t"
	.zero	2
.LC6:
	.string	"greater\r\n"
	.zero	6
.LC7:
	.string	"%s:\t"
	.zero	3
.LC8:
	.string	"%llu\t"
	.zero	2
.LC9:
	.string	"\r\n"
	.zero	5
.LC10:
	.string	"%s:\t%lld\t%lld\r\n"
.LC11:
	.string	"(%s)\tMax\tAverage\r\n"
	.zero	5
.LC12:
	.string	"\0013[BLK-IO]Failed to wait io latency timer finished!"
	.zero	4
.LC13:
	.string	"&(&q->hisi_queue.io_latency_statistic_lock)->rlock"
	.zero	5
.LC14:
	.string	"&(&q->hisi_queue.io_hw_latency_statistic_lock)->rlock"
	.zero	2
.LC15:
	.string	"&(&q->hisi_queue.io_sw_latency_statistic_lock)->rlock"
	.zero	2
.LC16:
	.string	"&(&latency_log_protect_lock)->rlock"
	.zero	4
.LC17:
	.string	"\0013[BLK-IO]%s: io latency warning threshold would be set to %lu \r\n"
	.zero	6
.LC18:
	.string	"\0013[BLK-IO]%s: io latency statistic enable \r\n"
	.zero	3
.LC19:
	.string	"\0013[BLK-IO]%s: io latency statistic disable \r\n"
	.zero	2
.LC20:
	.string	"R4K"
	.zero	4
.LC21:
	.string	"R8K"
	.zero	4
.LC22:
	.string	"R16K"
	.zero	3
.LC23:
	.string	"R32K"
	.zero	3
.LC24:
	.string	"R64K"
	.zero	3
.LC25:
	.string	"R128K"
	.zero	2
.LC26:
	.string	"R256K"
	.zero	2
.LC27:
	.string	"R512K"
	.zero	2
.LC28:
	.string	"R1M"
	.zero	4
.LC29:
	.string	"W4K"
	.zero	4
.LC30:
	.string	"W8K"
	.zero	4
.LC31:
	.string	"W16K"
	.zero	3
.LC32:
	.string	"W32K"
	.zero	3
.LC33:
	.string	"W64K"
	.zero	3
.LC34:
	.string	"W128K"
	.zero	2
.LC35:
	.string	"W256K"
	.zero	2
.LC36:
	.string	"W512K"
	.zero	2
.LC37:
	.string	"W1M"
	.zero	4
.LC38:
	.string	"D4K"
	.zero	4
.LC39:
	.string	"D128K"
	.zero	2
.LC40:
	.string	"D1M"
	.zero	4
.LC41:
	.string	"D2M"
	.zero	4
.LC42:
	.string	"D8M"
	.zero	4
.LC43:
	.string	"D16M"
	.zero	3
.LC44:
	.string	"D32M"
	.zero	3
.LC45:
	.string	"D--"
	.zero	4
.LC46:
	.string	"F"
	.zero	6
.LC47:
	.string	""
	.zero	7
.LC48:
	.string	"REQ_INIT"
	.zero	7
.LC49:
	.string	"REQ_RQ_START"
	.zero	3
.LC50:
	.string	"REQ_MQ_ADDTO_PLUGLIST"
	.zero	2
.LC51:
	.string	"REQ_MQ_FLUSH_PLUGLIST"
	.zero	2
.LC52:
	.string	"REQ_MQ_ADDTO_SYNC_LIST"
	.zero	1
.LC53:
	.string	"REQ_MQ_ADDTO_ASYNC_LIST"
.LC54:
	.string	"REQ_MQ_QUEUE_RQ"
.LC55:
	.string	"REQ_SQ_REQUEUE"
	.zero	1
.LC56:
	.string	"REQ_SCSI_SFT_IRQ_DONE"
	.zero	2
.LC57:
	.string	"REQ_RQ_UPDATE"
	.zero	2
.LC58:
	.string	"REQ_RQ_FREE"
	.zero	4
.LC59:
	.string	"BIO_SUBMIT"
	.zero	5
.LC60:
	.string	"BIO_END"
.LC61:
	.string	"BIO_MAKE_REQ"
	.zero	3
.LC62:
	.string	"BIO_WBT_DONE"
	.bss
	.align	3
.LANCHOR1 = . + 0
	.type	latency_log_protect_lock, %object
	.size	latency_log_protect_lock, 24
latency_log_protect_lock:
	.zero	24
	.type	latency_warning_total, %object
	.size	latency_warning_total, 4
latency_warning_total:
	.zero	4
	.zero	4
	.type	__key.40089, %object
	.size	__key.40089, 0
__key.40089:
	.type	__key.40090, %object
	.size	__key.40090, 0
__key.40090:
	.type	__key.40091, %object
	.size	__key.40091, 0
__key.40091:
	.type	__key.40095, %object
	.size	__key.40095, 0
__key.40095:
	.section	___kcrctab+blk_mq_tagset_latency_warning_set,"a",%progbits
	.align	3
	.type	__kcrctab_blk_mq_tagset_latency_warning_set, %object
	.size	__kcrctab_blk_mq_tagset_latency_warning_set, 8
__kcrctab_blk_mq_tagset_latency_warning_set:
	.xword	__crc_blk_mq_tagset_latency_warning_set
	.section	___kcrctab+blk_queue_latency_statistic_set,"a",%progbits
	.align	3
	.type	__kcrctab_blk_queue_latency_statistic_set, %object
	.size	__kcrctab_blk_queue_latency_statistic_set, 8
__kcrctab_blk_queue_latency_statistic_set:
	.xword	__crc_blk_queue_latency_statistic_set
	.weak	__crc_blk_queue_latency_statistic_set
	.weak	__crc_blk_mq_tagset_latency_warning_set
	.weak	__crc_blk_queue_latency_warning_set
	.weak	__crc_blk_mq_tagset_latency_statistic_set
	.text
.Letext0:
	.file 14 "/mnt/disk/jenkins/ci/workspace/chipset_TONY_patch_01/opensource/component_code/vendor/huawei/extra/build/build_script/kirin_kernel_release/kernel/include/uapi/asm-generic/int-ll64.h"
	.file 15 "/mnt/disk/jenkins/ci/workspace/chipset_TONY_patch_01/opensource/component_code/vendor/huawei/extra/build/build_script/kirin_kernel_release/kernel/include/asm-generic/int-ll64.h"
	.file 16 "/mnt/disk/jenkins/ci/workspace/chipset_TONY_patch_01/opensource/component_code/vendor/huawei/extra/build/build_script/kirin_kernel_release/kernel/include/uapi/asm-generic/posix_types.h"
	.file 17 "/mnt/disk/jenkins/ci/workspace/chipset_TONY_patch_01/opensource/component_code/vendor/huawei/extra/build/build_script/kirin_kernel_release/kernel/include/linux/export.h"
	.file 18 "/mnt/disk/jenkins/ci/workspace/chipset_TONY_patch_01/opensource/component_code/vendor/huawei/extra/build/build_script/kirin_kernel_release/kernel/include/linux/types.h"
	.file 19 "/mnt/disk/jenkins/ci/workspace/chipset_TONY_patch_01/opensource/component_code/vendor/huawei/extra/build/build_script/kirin_kernel_release/kernel/include/linux/capability.h"
	.file 20 "/mnt/disk/jenkins/ci/workspace/chipset_TONY_patch_01/opensource/component_code/vendor/huawei/extra/build/build_script/kirin_kernel_release/kernel/include/asm-generic/bug.h"
	.file 21 "/mnt/disk/jenkins/ci/workspace/chipset_TONY_patch_01/opensource/component_code/vendor/huawei/extra/build/build_script/kirin_kernel_release/kernel/include/linux/restart_block.h"
	.file 22 "/mnt/disk/jenkins/ci/workspace/chipset_TONY_patch_01/opensource/component_code/vendor/huawei/extra/build/build_script/kirin_kernel_release/kernel/include/uapi/linux/time.h"
	.file 23 "/mnt/disk/jenkins/ci/workspace/chipset_TONY_patch_01/opensource/component_code/vendor/huawei/extra/build/build_script/kirin_kernel_release/kernel/arch/arm64/include/asm/compat.h"
	.file 24 "/mnt/disk/jenkins/ci/workspace/chipset_TONY_patch_01/opensource/component_code/vendor/huawei/extra/build/build_script/kirin_kernel_release/kernel/include/uapi/asm-generic/poll.h"
	.file 25 "/mnt/disk/jenkins/ci/workspace/chipset_TONY_patch_01/opensource/component_code/vendor/huawei/extra/build/build_script/kirin_kernel_release/kernel/arch/arm64/include/asm/thread_info.h"
	.file 26 "/mnt/disk/jenkins/ci/workspace/chipset_TONY_patch_01/opensource/component_code/vendor/huawei/extra/build/build_script/kirin_kernel_release/kernel/arch/arm64/include/uapi/asm/ptrace.h"
	.file 27 "/mnt/disk/jenkins/ci/workspace/chipset_TONY_patch_01/opensource/component_code/vendor/huawei/extra/build/build_script/kirin_kernel_release/kernel/arch/arm64/include/asm/spinlock_types.h"
	.file 28 "/mnt/disk/jenkins/ci/workspace/chipset_TONY_patch_01/opensource/component_code/vendor/huawei/extra/build/build_script/kirin_kernel_release/kernel/include/linux/spinlock_types.h"
	.file 29 "/mnt/disk/jenkins/ci/workspace/chipset_TONY_patch_01/opensource/component_code/vendor/huawei/extra/build/build_script/kirin_kernel_release/kernel/include/linux/rwlock_types.h"
	.file 30 "/mnt/disk/jenkins/ci/workspace/chipset_TONY_patch_01/opensource/component_code/vendor/huawei/extra/build/build_script/kirin_kernel_release/kernel/arch/arm64/include/asm/fpsimd.h"
	.file 31 "/mnt/disk/jenkins/ci/workspace/chipset_TONY_patch_01/opensource/component_code/vendor/huawei/extra/build/build_script/kirin_kernel_release/kernel/include/linux/jump_label.h"
	.file 32 "/mnt/disk/jenkins/ci/workspace/chipset_TONY_patch_01/opensource/component_code/vendor/huawei/extra/build/build_script/kirin_kernel_release/kernel/include/asm-generic/atomic-long.h"
	.file 33 "/mnt/disk/jenkins/ci/workspace/chipset_TONY_patch_01/opensource/component_code/vendor/huawei/extra/build/build_script/kirin_kernel_release/kernel/arch/arm64/include/asm/processor.h"
	.file 34 "/mnt/disk/jenkins/ci/workspace/chipset_TONY_patch_01/opensource/component_code/vendor/huawei/extra/build/build_script/kirin_kernel_release/kernel/include/linux/seqlock.h"
	.file 35 "/mnt/disk/jenkins/ci/workspace/chipset_TONY_patch_01/opensource/component_code/vendor/huawei/extra/build/build_script/kirin_kernel_release/kernel/include/linux/time64.h"
	.file 36 "/mnt/disk/jenkins/ci/workspace/chipset_TONY_patch_01/opensource/component_code/vendor/huawei/extra/build/build_script/kirin_kernel_release/kernel/include/linux/plist.h"
	.file 37 "/mnt/disk/jenkins/ci/workspace/chipset_TONY_patch_01/opensource/component_code/vendor/huawei/extra/build/build_script/kirin_kernel_release/kernel/include/linux/wait.h"
	.file 38 "/mnt/disk/jenkins/ci/workspace/chipset_TONY_patch_01/opensource/component_code/vendor/huawei/extra/build/build_script/kirin_kernel_release/kernel/include/linux/completion.h"
	.file 39 "/mnt/disk/jenkins/ci/workspace/chipset_TONY_patch_01/opensource/component_code/vendor/huawei/extra/build/build_script/kirin_kernel_release/kernel/include/linux/ktime.h"
	.file 40 "/mnt/disk/jenkins/ci/workspace/chipset_TONY_patch_01/opensource/component_code/vendor/huawei/extra/build/build_script/kirin_kernel_release/kernel/include/linux/rbtree.h"
	.file 41 "/mnt/disk/jenkins/ci/workspace/chipset_TONY_patch_01/opensource/component_code/vendor/huawei/extra/build/build_script/kirin_kernel_release/kernel/include/linux/nodemask.h"
	.file 42 "/mnt/disk/jenkins/ci/workspace/chipset_TONY_patch_01/opensource/component_code/vendor/huawei/extra/build/build_script/kirin_kernel_release/kernel/include/linux/osq_lock.h"
	.file 43 "/mnt/disk/jenkins/ci/workspace/chipset_TONY_patch_01/opensource/component_code/vendor/huawei/extra/build/build_script/kirin_kernel_release/kernel/include/linux/rwsem.h"
	.file 44 "/mnt/disk/jenkins/ci/workspace/chipset_TONY_patch_01/opensource/component_code/vendor/huawei/extra/build/build_script/kirin_kernel_release/kernel/include/linux/sched.h"
	.file 45 "/mnt/disk/jenkins/ci/workspace/chipset_TONY_patch_01/opensource/component_code/vendor/huawei/extra/build/build_script/kirin_kernel_release/kernel/include/linux/mm_types.h"
	.file 46 "/mnt/disk/jenkins/ci/workspace/chipset_TONY_patch_01/opensource/component_code/vendor/huawei/extra/build/build_script/kirin_kernel_release/kernel/include/linux/lockdep.h"
	.file 47 "/mnt/disk/jenkins/ci/workspace/chipset_TONY_patch_01/opensource/component_code/vendor/huawei/extra/build/build_script/kirin_kernel_release/kernel/include/linux/uprobes.h"
	.file 48 "/mnt/disk/jenkins/ci/workspace/chipset_TONY_patch_01/opensource/component_code/vendor/huawei/extra/build/build_script/kirin_kernel_release/kernel/include/linux/timer.h"
	.file 49 "/mnt/disk/jenkins/ci/workspace/chipset_TONY_patch_01/opensource/component_code/vendor/huawei/extra/build/build_script/kirin_kernel_release/kernel/include/linux/uidgid.h"
	.file 50 "/mnt/disk/jenkins/ci/workspace/chipset_TONY_patch_01/opensource/component_code/vendor/huawei/extra/build/build_script/kirin_kernel_release/kernel/include/linux/sysctl.h"
	.file 51 "/mnt/disk/jenkins/ci/workspace/chipset_TONY_patch_01/opensource/component_code/vendor/huawei/extra/build/build_script/kirin_kernel_release/kernel/include/linux/workqueue.h"
	.file 52 "/mnt/disk/jenkins/ci/workspace/chipset_TONY_patch_01/opensource/component_code/vendor/huawei/extra/build/build_script/kirin_kernel_release/kernel/arch/arm64/include/asm/pgtable-types.h"
	.file 53 "/mnt/disk/jenkins/ci/workspace/chipset_TONY_patch_01/opensource/component_code/vendor/huawei/extra/build/build_script/kirin_kernel_release/kernel/arch/arm64/include/asm/page.h"
	.file 54 "/mnt/disk/jenkins/ci/workspace/chipset_TONY_patch_01/opensource/component_code/vendor/huawei/extra/build/build_script/kirin_kernel_release/kernel/include/linux/pfn.h"
	.file 55 "/mnt/disk/jenkins/ci/workspace/chipset_TONY_patch_01/opensource/component_code/vendor/huawei/extra/build/build_script/kirin_kernel_release/kernel/include/linux/llist.h"
	.file 56 "/mnt/disk/jenkins/ci/workspace/chipset_TONY_patch_01/opensource/component_code/vendor/huawei/extra/build/build_script/kirin_kernel_release/kernel/include/linux/smp.h"
	.file 57 "/mnt/disk/jenkins/ci/workspace/chipset_TONY_patch_01/opensource/component_code/vendor/huawei/extra/build/build_script/kirin_kernel_release/kernel/arch/arm64/include/asm/smp.h"
	.file 58 "/mnt/disk/jenkins/ci/workspace/chipset_TONY_patch_01/opensource/component_code/vendor/huawei/extra/build/build_script/kirin_kernel_release/kernel/arch/arm64/include/asm/mmu.h"
	.file 59 "/mnt/disk/jenkins/ci/workspace/chipset_TONY_patch_01/opensource/component_code/vendor/huawei/extra/build/build_script/kirin_kernel_release/kernel/include/linux/fs.h"
	.file 60 "/mnt/disk/jenkins/ci/workspace/chipset_TONY_patch_01/opensource/component_code/vendor/huawei/extra/build/build_script/kirin_kernel_release/kernel/include/linux/mm.h"
	.file 61 "/mnt/disk/jenkins/ci/workspace/chipset_TONY_patch_01/opensource/component_code/vendor/huawei/extra/build/build_script/kirin_kernel_release/kernel/include/linux/blk-cgroup.h"
	.file 62 "/mnt/disk/jenkins/ci/workspace/chipset_TONY_patch_01/opensource/component_code/vendor/huawei/extra/build/build_script/kirin_kernel_release/kernel/include/linux/user_namespace.h"
	.file 63 "/mnt/disk/jenkins/ci/workspace/chipset_TONY_patch_01/opensource/component_code/vendor/huawei/extra/build/build_script/kirin_kernel_release/kernel/include/asm-generic/cputime_jiffies.h"
	.file 64 "/mnt/disk/jenkins/ci/workspace/chipset_TONY_patch_01/opensource/component_code/vendor/huawei/extra/build/build_script/kirin_kernel_release/kernel/include/uapi/asm-generic/signal.h"
	.file 65 "/mnt/disk/jenkins/ci/workspace/chipset_TONY_patch_01/opensource/component_code/vendor/huawei/extra/build/build_script/kirin_kernel_release/kernel/include/uapi/asm-generic/signal-defs.h"
	.file 66 "/mnt/disk/jenkins/ci/workspace/chipset_TONY_patch_01/opensource/component_code/vendor/huawei/extra/build/build_script/kirin_kernel_release/kernel/include/uapi/asm-generic/siginfo.h"
	.file 67 "/mnt/disk/jenkins/ci/workspace/chipset_TONY_patch_01/opensource/component_code/vendor/huawei/extra/build/build_script/kirin_kernel_release/kernel/include/linux/signal.h"
	.file 68 "/mnt/disk/jenkins/ci/workspace/chipset_TONY_patch_01/opensource/component_code/vendor/huawei/extra/build/build_script/kirin_kernel_release/kernel/include/linux/pid.h"
	.file 69 "/mnt/disk/jenkins/ci/workspace/chipset_TONY_patch_01/opensource/component_code/vendor/huawei/extra/build/build_script/kirin_kernel_release/kernel/include/linux/mmzone.h"
	.file 70 "/mnt/disk/jenkins/ci/workspace/chipset_TONY_patch_01/opensource/component_code/vendor/huawei/extra/build/build_script/kirin_kernel_release/kernel/include/linux/mutex.h"
	.file 71 "/mnt/disk/jenkins/ci/workspace/chipset_TONY_patch_01/opensource/component_code/vendor/huawei/extra/build/build_script/kirin_kernel_release/kernel/include/linux/notifier.h"
	.file 72 "/mnt/disk/jenkins/ci/workspace/chipset_TONY_patch_01/opensource/component_code/vendor/huawei/extra/build/build_script/kirin_kernel_release/kernel/include/linux/seccomp.h"
	.file 73 "/mnt/disk/jenkins/ci/workspace/chipset_TONY_patch_01/opensource/component_code/vendor/huawei/extra/build/build_script/kirin_kernel_release/kernel/include/uapi/linux/resource.h"
	.file 74 "/mnt/disk/jenkins/ci/workspace/chipset_TONY_patch_01/opensource/component_code/vendor/huawei/extra/build/build_script/kirin_kernel_release/kernel/include/linux/timerqueue.h"
	.file 75 "/mnt/disk/jenkins/ci/workspace/chipset_TONY_patch_01/opensource/component_code/vendor/huawei/extra/build/build_script/kirin_kernel_release/kernel/include/linux/hrtimer.h"
	.file 76 "/mnt/disk/jenkins/ci/workspace/chipset_TONY_patch_01/opensource/component_code/vendor/huawei/extra/build/build_script/kirin_kernel_release/kernel/include/linux/task_io_accounting.h"
	.file 77 "/mnt/disk/jenkins/ci/workspace/chipset_TONY_patch_01/opensource/component_code/vendor/huawei/extra/build/build_script/kirin_kernel_release/kernel/include/linux/assoc_array.h"
	.file 78 "/mnt/disk/jenkins/ci/workspace/chipset_TONY_patch_01/opensource/component_code/vendor/huawei/extra/build/build_script/kirin_kernel_release/kernel/include/linux/key.h"
	.file 79 "/mnt/disk/jenkins/ci/workspace/chipset_TONY_patch_01/opensource/component_code/vendor/huawei/extra/build/build_script/kirin_kernel_release/kernel/include/linux/cred.h"
	.file 80 "/mnt/disk/jenkins/ci/workspace/chipset_TONY_patch_01/opensource/component_code/vendor/huawei/extra/build/build_script/kirin_kernel_release/kernel/include/linux/idr.h"
	.file 81 "/mnt/disk/jenkins/ci/workspace/chipset_TONY_patch_01/opensource/component_code/vendor/huawei/extra/build/build_script/kirin_kernel_release/kernel/include/linux/percpu-refcount.h"
	.file 82 "/mnt/disk/jenkins/ci/workspace/chipset_TONY_patch_01/opensource/component_code/vendor/huawei/extra/build/build_script/kirin_kernel_release/kernel/include/linux/rcu_sync.h"
	.file 83 "/mnt/disk/jenkins/ci/workspace/chipset_TONY_patch_01/opensource/component_code/vendor/huawei/extra/build/build_script/kirin_kernel_release/kernel/include/linux/percpu-rwsem.h"
	.file 84 "/mnt/disk/jenkins/ci/workspace/chipset_TONY_patch_01/opensource/component_code/vendor/huawei/extra/build/build_script/kirin_kernel_release/kernel/include/linux/bpf-cgroup.h"
	.file 85 "/mnt/disk/jenkins/ci/workspace/chipset_TONY_patch_01/opensource/component_code/vendor/huawei/extra/build/build_script/kirin_kernel_release/kernel/include/linux/cgroup-defs.h"
	.file 86 "/mnt/disk/jenkins/ci/workspace/chipset_TONY_patch_01/opensource/component_code/vendor/huawei/extra/build/build_script/kirin_kernel_release/kernel/include/linux/kernfs.h"
	.file 87 "/mnt/disk/jenkins/ci/workspace/chipset_TONY_patch_01/opensource/component_code/vendor/huawei/extra/build/build_script/kirin_kernel_release/kernel/include/linux/seq_file.h"
	.file 88 "/mnt/disk/jenkins/ci/workspace/chipset_TONY_patch_01/opensource/component_code/vendor/huawei/extra/build/build_script/kirin_kernel_release/kernel/include/uapi/linux/taskstats.h"
	.file 89 "/mnt/disk/jenkins/ci/workspace/chipset_TONY_patch_01/opensource/component_code/vendor/huawei/extra/build/build_script/kirin_kernel_release/kernel/include/linux/nsproxy.h"
	.file 90 "/mnt/disk/jenkins/ci/workspace/chipset_TONY_patch_01/opensource/component_code/vendor/huawei/extra/build/build_script/kirin_kernel_release/kernel/include/linux/swap.h"
	.file 91 "/mnt/disk/jenkins/ci/workspace/chipset_TONY_patch_01/opensource/component_code/vendor/huawei/extra/build/build_script/kirin_kernel_release/kernel/include/linux/backing-dev-defs.h"
	.file 92 "/mnt/disk/jenkins/ci/workspace/chipset_TONY_patch_01/opensource/component_code/vendor/huawei/extra/build/build_script/kirin_kernel_release/kernel/include/linux/iocontext.h"
	.file 93 "/mnt/disk/jenkins/ci/workspace/chipset_TONY_patch_01/opensource/component_code/vendor/huawei/extra/build/build_script/kirin_kernel_release/kernel/include/linux/compat.h"
	.file 94 "/mnt/disk/jenkins/ci/workspace/chipset_TONY_patch_01/opensource/component_code/vendor/huawei/extra/build/build_script/kirin_kernel_release/kernel/include/linux/stat.h"
	.file 95 "/mnt/disk/jenkins/ci/workspace/chipset_TONY_patch_01/opensource/component_code/vendor/huawei/extra/build/build_script/kirin_kernel_release/kernel/include/uapi/linux/elf.h"
	.file 96 "/mnt/disk/jenkins/ci/workspace/chipset_TONY_patch_01/opensource/component_code/vendor/huawei/extra/build/build_script/kirin_kernel_release/kernel/include/linux/kobject_ns.h"
	.file 97 "/mnt/disk/jenkins/ci/workspace/chipset_TONY_patch_01/opensource/component_code/vendor/huawei/extra/build/build_script/kirin_kernel_release/kernel/include/linux/sysfs.h"
	.file 98 "/mnt/disk/jenkins/ci/workspace/chipset_TONY_patch_01/opensource/component_code/vendor/huawei/extra/build/build_script/kirin_kernel_release/kernel/include/linux/kobject.h"
	.file 99 "/mnt/disk/jenkins/ci/workspace/chipset_TONY_patch_01/opensource/component_code/vendor/huawei/extra/build/build_script/kirin_kernel_release/kernel/include/linux/kref.h"
	.file 100 "/mnt/disk/jenkins/ci/workspace/chipset_TONY_patch_01/opensource/component_code/vendor/huawei/extra/build/build_script/kirin_kernel_release/kernel/include/linux/moduleparam.h"
	.file 101 "/mnt/disk/jenkins/ci/workspace/chipset_TONY_patch_01/opensource/component_code/vendor/huawei/extra/build/build_script/kirin_kernel_release/kernel/include/linux/module.h"
	.file 102 "/mnt/disk/jenkins/ci/workspace/chipset_TONY_patch_01/opensource/component_code/vendor/huawei/extra/build/build_script/kirin_kernel_release/kernel/include/linux/rbtree_latch.h"
	.file 103 "/mnt/disk/jenkins/ci/workspace/chipset_TONY_patch_01/opensource/component_code/vendor/huawei/extra/build/build_script/kirin_kernel_release/kernel/arch/arm64/include/asm/module.h"
	.file 104 "/mnt/disk/jenkins/ci/workspace/chipset_TONY_patch_01/opensource/component_code/vendor/huawei/extra/build/build_script/kirin_kernel_release/kernel/arch/arm64/include/asm/uaccess.h"
	.file 105 "/mnt/disk/jenkins/ci/workspace/chipset_TONY_patch_01/opensource/component_code/vendor/huawei/extra/build/build_script/kirin_kernel_release/kernel/include/linux/tracepoint-defs.h"
	.file 106 "/mnt/disk/jenkins/ci/workspace/chipset_TONY_patch_01/opensource/component_code/vendor/huawei/extra/build/build_script/kirin_kernel_release/kernel/include/linux/tracepoint.h"
	.file 107 "/mnt/disk/jenkins/ci/workspace/chipset_TONY_patch_01/opensource/component_code/vendor/huawei/extra/build/build_script/kirin_kernel_release/kernel/include/linux/list_bl.h"
	.file 108 "/mnt/disk/jenkins/ci/workspace/chipset_TONY_patch_01/opensource/component_code/vendor/huawei/extra/build/build_script/kirin_kernel_release/kernel/include/linux/lockref.h"
	.file 109 "/mnt/disk/jenkins/ci/workspace/chipset_TONY_patch_01/opensource/component_code/vendor/huawei/extra/build/build_script/kirin_kernel_release/kernel/include/linux/dcache.h"
	.file 110 "/mnt/disk/jenkins/ci/workspace/chipset_TONY_patch_01/opensource/component_code/vendor/huawei/extra/build/build_script/kirin_kernel_release/kernel/include/linux/path.h"
	.file 111 "/mnt/disk/jenkins/ci/workspace/chipset_TONY_patch_01/opensource/component_code/vendor/huawei/extra/build/build_script/kirin_kernel_release/kernel/include/linux/shrinker.h"
	.file 112 "/mnt/disk/jenkins/ci/workspace/chipset_TONY_patch_01/opensource/component_code/vendor/huawei/extra/build/build_script/kirin_kernel_release/kernel/include/linux/list_lru.h"
	.file 113 "/mnt/disk/jenkins/ci/workspace/chipset_TONY_patch_01/opensource/component_code/vendor/huawei/extra/build/build_script/kirin_kernel_release/kernel/include/linux/radix-tree.h"
	.file 114 "/mnt/disk/jenkins/ci/workspace/chipset_TONY_patch_01/opensource/component_code/vendor/huawei/extra/build/build_script/kirin_kernel_release/kernel/include/uapi/linux/fiemap.h"
	.file 115 "/mnt/disk/jenkins/ci/workspace/chipset_TONY_patch_01/opensource/component_code/vendor/huawei/extra/build/build_script/kirin_kernel_release/kernel/include/linux/migrate_mode.h"
	.file 116 "/mnt/disk/jenkins/ci/workspace/chipset_TONY_patch_01/opensource/component_code/vendor/huawei/extra/build/build_script/kirin_kernel_release/kernel/include/linux/bvec.h"
	.file 117 "/mnt/disk/jenkins/ci/workspace/chipset_TONY_patch_01/opensource/component_code/vendor/huawei/extra/build/build_script/kirin_kernel_release/kernel/include/linux/blk_types.h"
	.file 118 "/mnt/disk/jenkins/ci/workspace/chipset_TONY_patch_01/opensource/component_code/vendor/huawei/extra/build/build_script/kirin_kernel_release/kernel/include/linux/delayed_call.h"
	.file 119 "/mnt/disk/jenkins/ci/workspace/chipset_TONY_patch_01/opensource/component_code/vendor/huawei/extra/build/build_script/kirin_kernel_release/kernel/include/linux/percpu_counter.h"
	.file 120 "/mnt/disk/jenkins/ci/workspace/chipset_TONY_patch_01/opensource/component_code/vendor/huawei/extra/build/build_script/kirin_kernel_release/kernel/include/linux/quota.h"
	.file 121 "/mnt/disk/jenkins/ci/workspace/chipset_TONY_patch_01/opensource/component_code/vendor/huawei/extra/build/build_script/kirin_kernel_release/kernel/include/linux/projid.h"
	.file 122 "/mnt/disk/jenkins/ci/workspace/chipset_TONY_patch_01/opensource/component_code/vendor/huawei/extra/build/build_script/kirin_kernel_release/kernel/include/linux/writeback.h"
	.file 123 "/mnt/disk/jenkins/ci/workspace/chipset_TONY_patch_01/opensource/component_code/vendor/huawei/extra/build/build_script/kirin_kernel_release/kernel/include/linux/uio.h"
	.file 124 "/mnt/disk/jenkins/ci/workspace/chipset_TONY_patch_01/opensource/component_code/vendor/huawei/extra/build/build_script/kirin_kernel_release/kernel/include/linux/genhd.h"
	.file 125 "/mnt/disk/jenkins/ci/workspace/chipset_TONY_patch_01/opensource/component_code/vendor/huawei/extra/build/build_script/kirin_kernel_release/kernel/include/linux/nfs_fs_i.h"
	.file 126 "/mnt/disk/jenkins/ci/workspace/chipset_TONY_patch_01/opensource/component_code/vendor/huawei/extra/build/build_script/kirin_kernel_release/kernel/include/linux/poll.h"
	.file 127 "/mnt/disk/jenkins/ci/workspace/chipset_TONY_patch_01/opensource/component_code/vendor/huawei/extra/build/build_script/kirin_kernel_release/kernel/include/linux/klist.h"
	.file 128 "/mnt/disk/jenkins/ci/workspace/chipset_TONY_patch_01/opensource/component_code/vendor/huawei/extra/build/build_script/kirin_kernel_release/kernel/include/linux/pinctrl/devinfo.h"
	.file 129 "/mnt/disk/jenkins/ci/workspace/chipset_TONY_patch_01/opensource/component_code/vendor/huawei/extra/build/build_script/kirin_kernel_release/kernel/include/linux/pm.h"
	.file 130 "/mnt/disk/jenkins/ci/workspace/chipset_TONY_patch_01/opensource/component_code/vendor/huawei/extra/build/build_script/kirin_kernel_release/kernel/include/linux/device.h"
	.file 131 "/mnt/disk/jenkins/ci/workspace/chipset_TONY_patch_01/opensource/component_code/vendor/huawei/extra/build/build_script/kirin_kernel_release/kernel/include/linux/pm_wakeup.h"
	.file 132 "/mnt/disk/jenkins/ci/workspace/chipset_TONY_patch_01/opensource/component_code/vendor/huawei/extra/build/build_script/kirin_kernel_release/kernel/include/linux/ratelimit.h"
	.file 133 "/mnt/disk/jenkins/ci/workspace/chipset_TONY_patch_01/opensource/component_code/vendor/huawei/extra/build/build_script/kirin_kernel_release/kernel/arch/arm64/include/asm/device.h"
	.file 134 "/mnt/disk/jenkins/ci/workspace/chipset_TONY_patch_01/opensource/component_code/vendor/huawei/extra/build/build_script/kirin_kernel_release/kernel/include/linux/vmstat.h"
	.file 135 "/mnt/disk/jenkins/ci/workspace/chipset_TONY_patch_01/opensource/component_code/vendor/huawei/extra/build/build_script/kirin_kernel_release/kernel/include/linux/flex_proportions.h"
	.file 136 "/mnt/disk/jenkins/ci/workspace/chipset_TONY_patch_01/opensource/component_code/vendor/huawei/extra/build/build_script/kirin_kernel_release/kernel/include/linux/mempool.h"
	.file 137 "/mnt/disk/jenkins/ci/workspace/chipset_TONY_patch_01/opensource/component_code/vendor/huawei/extra/build/build_script/kirin_kernel_release/kernel/include/linux/bsg.h"
	.file 138 "/mnt/disk/jenkins/ci/workspace/chipset_TONY_patch_01/opensource/component_code/vendor/huawei/extra/build/build_script/kirin_kernel_release/kernel/include/linux/wbt.h"
	.file 139 "/mnt/disk/jenkins/ci/workspace/chipset_TONY_patch_01/opensource/component_code/vendor/huawei/extra/build/build_script/kirin_kernel_release/kernel/block/blk-mq.h"
	.file 140 "/mnt/disk/jenkins/ci/workspace/chipset_TONY_patch_01/opensource/component_code/vendor/huawei/extra/build/build_script/kirin_kernel_release/kernel/include/linux/elevator.h"
	.file 141 "/mnt/disk/jenkins/ci/workspace/chipset_TONY_patch_01/opensource/component_code/vendor/huawei/extra/build/build_script/kirin_kernel_release/kernel/include/linux/blk-mq.h"
	.file 142 "/mnt/disk/jenkins/ci/workspace/chipset_TONY_patch_01/opensource/component_code/vendor/huawei/extra/build/build_script/kirin_kernel_release/kernel/block/hisi-blk.h"
	.file 143 "/mnt/disk/jenkins/ci/workspace/chipset_TONY_patch_01/opensource/component_code/vendor/huawei/extra/build/build_script/kirin_kernel_release/kernel/block/blk.h"
	.file 144 "/mnt/disk/jenkins/ci/workspace/chipset_TONY_patch_01/opensource/component_code/vendor/huawei/extra/build/build_script/kirin_kernel_release/kernel/include/linux/cgroup.h"
	.file 145 "/mnt/disk/jenkins/ci/workspace/chipset_TONY_patch_01/opensource/component_code/vendor/huawei/extra/build/build_script/kirin_kernel_release/kernel/include/linux/ns_common.h"
	.file 146 "/mnt/disk/jenkins/ci/workspace/chipset_TONY_patch_01/opensource/component_code/vendor/huawei/extra/build/build_script/kirin_kernel_release/kernel/include/linux/sbitmap.h"
	.file 147 "/mnt/disk/jenkins/ci/workspace/chipset_TONY_patch_01/opensource/component_code/vendor/huawei/extra/build/build_script/kirin_kernel_release/kernel/include/linux/interrupt.h"
	.file 148 "/mnt/disk/jenkins/ci/workspace/chipset_TONY_patch_01/opensource/component_code/vendor/huawei/extra/build/build_script/kirin_kernel_release/kernel/include/linux/kernel_stat.h"
	.file 149 "/mnt/disk/jenkins/ci/workspace/chipset_TONY_patch_01/opensource/component_code/vendor/huawei/extra/build/build_script/kirin_kernel_release/kernel/include/uapi/linux/uio.h"
	.file 150 "/mnt/disk/jenkins/ci/workspace/chipset_TONY_patch_01/opensource/component_code/vendor/huawei/extra/build/build_script/kirin_kernel_release/kernel/include/asm-generic/preempt.h"
	.file 151 "/mnt/disk/jenkins/ci/workspace/chipset_TONY_patch_01/opensource/component_code/vendor/huawei/extra/build/build_script/kirin_kernel_release/kernel/arch/arm64/include/asm/cachetype.h"
	.file 152 "/mnt/disk/jenkins/ci/workspace/chipset_TONY_patch_01/opensource/component_code/vendor/huawei/extra/build/build_script/kirin_kernel_release/kernel/include/linux/printk.h"
	.file 153 "/mnt/disk/jenkins/ci/workspace/chipset_TONY_patch_01/opensource/component_code/vendor/huawei/extra/build/build_script/kirin_kernel_release/kernel/include/linux/kernel.h"
	.file 154 "/mnt/disk/jenkins/ci/workspace/chipset_TONY_patch_01/opensource/component_code/vendor/huawei/extra/build/build_script/kirin_kernel_release/kernel/arch/arm64/include/asm/stack_pointer.h"
	.file 155 "/mnt/disk/jenkins/ci/workspace/chipset_TONY_patch_01/opensource/component_code/vendor/huawei/extra/build/build_script/kirin_kernel_release/kernel/arch/arm64/include/asm/hwcap.h"
	.file 156 "/mnt/disk/jenkins/ci/workspace/chipset_TONY_patch_01/opensource/component_code/vendor/huawei/extra/build/build_script/kirin_kernel_release/kernel/arch/arm64/include/asm/cpufeature.h"
	.file 157 "/mnt/disk/jenkins/ci/workspace/chipset_TONY_patch_01/opensource/component_code/vendor/huawei/extra/build/build_script/kirin_kernel_release/kernel/arch/arm64/include/asm/virt.h"
	.file 158 "/mnt/disk/jenkins/ci/workspace/chipset_TONY_patch_01/opensource/component_code/vendor/huawei/extra/build/build_script/kirin_kernel_release/kernel/arch/arm64/include/asm/arch_timer.h"
	.file 159 "/mnt/disk/jenkins/ci/workspace/chipset_TONY_patch_01/opensource/component_code/vendor/huawei/extra/build/build_script/kirin_kernel_release/kernel/include/linux/highuid.h"
	.file 160 "/mnt/disk/jenkins/ci/workspace/chipset_TONY_patch_01/opensource/component_code/vendor/huawei/extra/build/build_script/kirin_kernel_release/kernel/arch/arm64/include/asm/memory.h"
	.file 161 "/mnt/disk/jenkins/ci/workspace/chipset_TONY_patch_01/opensource/component_code/vendor/huawei/extra/build/build_script/kirin_kernel_release/kernel/include/asm-generic/percpu.h"
	.file 162 "/mnt/disk/jenkins/ci/workspace/chipset_TONY_patch_01/opensource/component_code/vendor/huawei/extra/build/build_script/kirin_kernel_release/kernel/include/linux/slab.h"
	.file 163 "/mnt/disk/jenkins/ci/workspace/chipset_TONY_patch_01/opensource/component_code/vendor/huawei/extra/build/build_script/kirin_kernel_release/kernel/include/linux/debug_locks.h"
	.file 164 "/mnt/disk/jenkins/ci/workspace/chipset_TONY_patch_01/opensource/component_code/vendor/huawei/extra/build/build_script/kirin_kernel_release/kernel/include/asm-generic/pgtable.h"
	.file 165 "/mnt/disk/jenkins/ci/workspace/chipset_TONY_patch_01/opensource/component_code/vendor/huawei/extra/build/build_script/kirin_kernel_release/kernel/arch/arm64/include/asm/irq.h"
	.file 166 "/mnt/disk/jenkins/ci/workspace/chipset_TONY_patch_01/opensource/component_code/vendor/huawei/extra/build/build_script/kirin_kernel_release/kernel/arch/arm64/include/asm/hardirq.h"
	.file 167 "/mnt/disk/jenkins/ci/workspace/chipset_TONY_patch_01/opensource/component_code/vendor/huawei/extra/build/build_script/kirin_kernel_release/kernel/include/linux/backing-dev.h"
	.file 168 "/mnt/disk/jenkins/ci/workspace/chipset_TONY_patch_01/opensource/component_code/vendor/huawei/extra/build/build_script/kirin_kernel_release/kernel/include/linux/pm_runtime.h"
	.file 169 "/mnt/disk/jenkins/ci/workspace/chipset_TONY_patch_01/opensource/component_code/vendor/huawei/extra/build/build_script/kirin_kernel_release/kernel/include/trace/events/block.h"
	.file 170 "/mnt/disk/jenkins/ci/workspace/chipset_TONY_patch_01/opensource/component_code/vendor/huawei/extra/build/build_script/kirin_kernel_release/kernel/include/linux/spinlock_api_smp.h"
	.file 171 "/mnt/disk/jenkins/ci/workspace/chipset_TONY_patch_01/opensource/component_code/vendor/huawei/extra/build/build_script/kirin_kernel_release/kernel/include/chipset_common/hwzrhung/zrhung_wp_io.h"
	.file 172 "/mnt/disk/jenkins/ci/workspace/chipset_TONY_patch_01/opensource/component_code/vendor/huawei/extra/build/build_script/kirin_kernel_release/kernel/include/asm-generic/delay.h"
	.file 173 "/mnt/disk/jenkins/ci/workspace/chipset_TONY_patch_01/opensource/component_code/vendor/huawei/extra/build/build_script/kirin_kernel_release/kernel/include/asm-generic/bitops/find.h"
	.section	.note.GNU-stack,"",%progbits
