	.cpu generic+fp+simd
	.file	"hisi-blk-dump.c"
	.text
.Ltext0:
	.cfi_sections	.debug_frame
	.align	2
	.global	blk_mq_tagset_dump_register
	.type	blk_mq_tagset_dump_register, %function
blk_mq_tagset_dump_register:
.LFB2706:
	.file 1 "/mnt/disk/jenkins/ci/workspace/chipset_TONY_patch_01/opensource/component_code/vendor/huawei/extra/build/build_script/kirin_kernel_release/kernel/block/hisi-blk-dump.c"
	.loc 1 446 0
	.cfi_startproc
.LVL0:
	.loc 1 449 0
	ldr	x2, [x0,40]
	.loc 1 448 0
	str	x1, [x0,56]
	.loc 1 449 0
	orr	x2, x2, 1
	str	x2, [x0,40]
	.loc 1 451 0
	ret
	.cfi_endproc
.LFE2706:
	.size	blk_mq_tagset_dump_register, .-blk_mq_tagset_dump_register
	.section	.text.unlikely,"ax",%progbits
	.align	2
	.type	hisi_blk_dump_queue_status.part.0, %function
hisi_blk_dump_queue_status.part.0:
.LFB2708:
	.loc 1 222 0
	.cfi_startproc
.LVL1:
	stp	x29, x30, [sp, -16]!
	.cfi_def_cfa_offset 16
	.cfi_offset 29, -16
	.cfi_offset 30, -8
	add	x29, sp, 0
	.cfi_def_cfa_register 29
	.loc 1 238 0
	ldr	x3, [x0,13024]
	cbz	x3, .L2
	.loc 1 238 0 is_stmt 0 discriminator 1
	ldr	x3, [x3,192]
	cbz	x3, .L2
	.loc 1 239 0 is_stmt 1
	blr	x3
.LVL2:
.L2:
	.loc 1 241 0
	ldp	x29, x30, [sp], 16
	.cfi_restore 30
	.cfi_restore 29
	.cfi_def_cfa 31, 0
	ret
	.cfi_endproc
.LFE2708:
	.size	hisi_blk_dump_queue_status.part.0, .-hisi_blk_dump_queue_status.part.0
	.text
	.align	2
	.type	hisi_blk_io_type_parse.constprop.2, %function
hisi_blk_io_type_parse.constprop.2:
.LFB2710:
	.loc 1 18 0
	.cfi_startproc
.LVL3:
	.loc 1 23 0
	cmp	x0, 5
	bhi	.L26
	cmp	w0, 5
	bls	.L39
.L26:
	mov	x0, 0
.LVL4:
	.loc 1 20 0
	mov	w3, 0
.L12:
	.loc 1 46 0
	tbz	x1, 8, .L20
	.loc 1 47 0
	add	w3, w3, 1
	mov	w4, 65
	strb	w4, [x2,x0]
	uxtw	x0, w3
.L20:
	.loc 1 48 0
	tbz	x1, 3, .L21
	.loc 1 49 0
	add	w3, w3, 1
	mov	w4, 83
	strb	w4, [x2,x0]
	uxtw	x0, w3
.L21:
	.loc 1 50 0
	tbz	x1, 4, .L22
	.loc 1 51 0
	add	w3, w3, 1
	mov	w4, 77
	strb	w4, [x2,x0]
	uxtw	x0, w3
.L22:
	.loc 1 52 0
	tbnz	x1, 11, .L24
.LVL5:
	.loc 1 55 0
	strb	wzr, [x2,x0]
	.loc 1 59 0
	mov	x0, x2
	ret
.LVL6:
.L39:
	.loc 1 23 0
	adrp	x3, .L14
	add	x3, x3, :lo12:.L14
	ldrb	w0, [x3,w0,uxtw]
	adr	x3, .Lrtx14
	add	x0, x3, w0, sxtb #2
	br	x0
.Lrtx14:
.LVL7:
	.section	.rodata
	.align	0
	.align	2
.L14:
	.byte	(.L13 - .Lrtx14) / 4
	.byte	(.L15 - .Lrtx14) / 4
	.byte	(.L16 - .Lrtx14) / 4
	.byte	(.L17 - .Lrtx14) / 4
	.byte	(.L18 - .Lrtx14) / 4
	.byte	(.L19 - .Lrtx14) / 4
	.text
.L18:
	.loc 1 37 0
	mov	x0, 1
	mov	w4, 84
	mov	w3, w0
	strb	w4, [x2]
	b	.L12
.L17:
	.loc 1 34 0
	mov	x0, 1
	mov	w4, 69
	mov	w3, w0
	strb	w4, [x2]
	b	.L12
.L16:
	.loc 1 31 0
	mov	x0, 1
	mov	w4, 68
	mov	w3, w0
	strb	w4, [x2]
	b	.L12
.L15:
	.loc 1 28 0
	mov	x0, 1
	mov	w4, 87
	mov	w3, w0
	strb	w4, [x2]
	b	.L12
.L13:
	.loc 1 25 0
	mov	x0, 1
	mov	w4, 82
	mov	w3, w0
	strb	w4, [x2]
	b	.L12
.L19:
	.loc 1 40 0
	mov	x0, 1
	mov	w4, 70
	mov	w3, w0
	strb	w4, [x2]
	b	.L12
.LVL8:
.L24:
	.loc 1 55 0
	add	w3, w3, 1
	.loc 1 53 0
	mov	w1, 72
	strb	w1, [x2,x0]
	.loc 1 59 0
	mov	x0, x2
	.loc 1 55 0
	strb	wzr, [x2,x3]
	.loc 1 59 0
	ret
	.cfi_endproc
.LFE2710:
	.size	hisi_blk_io_type_parse.constprop.2, .-hisi_blk_io_type_parse.constprop.2
	.align	2
	.global	blk_queue_dump_register
	.type	blk_queue_dump_register, %function
blk_queue_dump_register:
.LFB2707:
	.loc 1 458 0
	.cfi_startproc
.LVL9:
	stp	x29, x30, [sp, -64]!
	.cfi_def_cfa_offset 64
	.cfi_offset 29, -64
	.cfi_offset 30, -56
	add	x29, sp, 0
	.cfi_def_cfa_register 29
	stp	x19, x20, [sp,16]
	str	x21, [sp,32]
	.cfi_offset 19, -48
	.cfi_offset 20, -40
	.cfi_offset 21, -32
	.loc 1 458 0
	mov	x20, x0
	str	x1, [x29,56]
	.loc 1 459 0
	bl	hisi_blk_get_lld
.LVL10:
	mov	x2, x0
.LVL11:
	.loc 1 460 0
	ldr	x1, [x29,56]
.LVL12:
.LBB110:
.LBB111:
	.loc 1 402 0
	mov	x0, x20
.LBE111:
.LBE110:
	.loc 1 461 0
	ldr	x3, [x2,24]
	.loc 1 460 0
	str	x1, [x2,40]
	.loc 1 461 0
	orr	x1, x3, 1
.LVL13:
	str	x1, [x2,24]
.LBB139:
.LBB137:
	.loc 1 402 0
	bl	hisi_blk_get_lld
.LVL14:
	.loc 1 403 0
	ldr	x0, [x0,24]
	tbz	x0, 0, .L40
.LBB112:
.LBB113:
	.loc 1 404 0
	add	x19, x20, 12288
.LBB114:
.LBB115:
.LBB116:
.LBB117:
	.file 2 "/mnt/disk/jenkins/ci/workspace/chipset_TONY_patch_01/opensource/component_code/vendor/huawei/extra/build/build_script/kirin_kernel_release/kernel/include/linux/compiler.h"
	.loc 2 247 0 discriminator 5
	ldr	x0, [x20,12920]
.LBE117:
.LBE116:
.LBE115:
.LBE114:
	.loc 1 404 0
	add	x19, x19, 632
	cmp	x19, x0
	beq	.L45
.L40:
.LBE113:
.LBE112:
.LBE137:
.LBE139:
	.loc 1 463 0
	ldp	x19, x20, [sp,16]
	.cfi_remember_state
	.cfi_restore 20
	.cfi_restore 19
.LVL15:
	ldr	x21, [sp,32]
	.cfi_restore 21
	ldp	x29, x30, [sp], 64
	.cfi_restore 30
	.cfi_restore 29
	.cfi_def_cfa 31, 0
	ret
.LVL16:
.L45:
	.cfi_restore_state
.LBB140:
.LBB138:
.LBB136:
.LBB135:
.LBB118:
.LBB119:
	.file 3 "/mnt/disk/jenkins/ci/workspace/chipset_TONY_patch_01/opensource/component_code/vendor/huawei/extra/build/build_script/kirin_kernel_release/kernel/include/linux/spinlock.h"
	.loc 3 302 0
	adrp	x21, .LANCHOR0
	add	x21, x21, :lo12:.LANCHOR0
	mov	x0, x21
	bl	_raw_spin_lock
.LVL17:
.LBE119:
.LBE118:
.LBB120:
.LBB121:
	.file 4 "/mnt/disk/jenkins/ci/workspace/chipset_TONY_patch_01/opensource/component_code/vendor/huawei/extra/build/build_script/kirin_kernel_release/kernel/include/linux/list.h"
	.loc 4 77 0
	ldr	x2, [x21,32]
	add	x1, x21, 24
.LBB122:
.LBB123:
	.loc 4 43 0
	str	x1, [x20,12920]
.LBE123:
.LBE122:
.LBE121:
.LBE120:
.LBB130:
.LBB131:
	.loc 3 347 0
	mov	x0, x21
.LBE131:
.LBE130:
.LBB133:
.LBB129:
.LBB128:
.LBB127:
	.loc 4 42 0
	str	x19, [x21,32]
	.loc 4 44 0
	str	x2, [x19,8]
.LBB124:
.LBB125:
.LBB126:
	.loc 2 276 0
	str	x19, [x2]
.LBE126:
.LBE125:
.LBE124:
.LBE127:
.LBE128:
.LBE129:
.LBE133:
.LBB134:
.LBB132:
	.loc 3 347 0
	bl	_raw_spin_unlock
.LVL18:
	b	.L40
.LBE132:
.LBE134:
.LBE135:
.LBE136:
.LBE138:
.LBE140:
	.cfi_endproc
.LFE2707:
	.size	blk_queue_dump_register, .-blk_queue_dump_register
	.align	2
	.global	hisi_blk_dump_request
	.type	hisi_blk_dump_request, %function
hisi_blk_dump_request:
.LFB2695:
	.loc 1 65 0
	.cfi_startproc
.LVL19:
	sub	sp, sp, #544
	.cfi_def_cfa_offset 544
	stp	x29, x30, [sp, -96]!
	.cfi_def_cfa_offset 640
	.cfi_offset 29, -640
	.cfi_offset 30, -632
	add	x29, sp, 0
	.cfi_def_cfa_register 29
	stp	x19, x20, [sp,16]
	stp	x21, x22, [sp,32]
	stp	x23, x24, [sp,48]
	stp	x25, x26, [sp,64]
	stp	x27, x28, [sp,80]
	.cfi_offset 19, -624
	.cfi_offset 20, -616
	.cfi_offset 21, -608
	.cfi_offset 22, -600
	.cfi_offset 23, -592
	.cfi_offset 24, -584
	.cfi_offset 25, -576
	.cfi_offset 26, -568
	.cfi_offset 27, -560
	.cfi_offset 28, -552
	adrp	x24, __stack_chk_guard
	mov	x25, x1
	.loc 1 71 0
	ldr	x1, [x0,88]
.LVL20:
	.loc 1 65 0
	sub	sp, sp, #32
	.loc 1 65 0
	mov	x28, x0
	.loc 1 71 0
	add	x2, x29, 104
	.loc 1 65 0
	ldr	x3, [x24,#:lo12:__stack_chk_guard]
	add	x19, x0, 328
	add	x22, x0, 416
	.loc 1 71 0
	lsr	x0, x1, 61
.LVL21:
	adrp	x20, req_stage_cfg
	.loc 1 76 0
	adrp	x27, .LC1
	.loc 1 65 0
	str	x3, [x29,632]
	.loc 1 69 0
	mov	w21, 0
.LVL22:
	.loc 1 71 0
	bl	hisi_blk_io_type_parse.constprop.2
.LVL23:
	.loc 1 76 0
	mov	w23, 512
	.loc 1 71 0
	mov	x26, x0
.LVL24:
	add	x20, x20, :lo12:req_stage_cfg
	.loc 1 76 0
	add	x27, x27, :lo12:.LC1
	b	.L48
.L47:
	add	x19, x19, 8
	add	x20, x20, 16
	.loc 1 73 0 discriminator 1
	cmp	x19, x22
	beq	.L58
.L48:
	.loc 1 74 0
	ldr	x4, [x19]
	cbz	x4, .L47
	.loc 1 76 0
	sub	w1, w23, w21
	ldr	x3, [x20]
	mov	x2, x27
	add	x0, x29, 120
	sxtw	x1, w1
	add	x0, x0, x21, sxtw
	add	x19, x19, 8
	add	x20, x20, 16
	bl	snprintf
.LVL25:
	add	w21, w21, w0
	.loc 1 73 0 discriminator 1
	cmp	x19, x22
	bne	.L48
.L58:
	ldr	w0, [x28,84]
	sub	w0, w0, #1
	cmp	w0, 2
	bhi	.L53
	adrp	x1, .LANCHOR1
	.loc 1 95 0
	ldr	x8, [x28,232]
	add	x1, x1, :lo12:.LANCHOR1
	.loc 1 101 0
	ldr	x7, [x28,264]
	ldr	w4, [x28,104]
	ldr	x5, [x1,w0,uxtw 3]
.LVL26:
	.loc 1 95 0
	cbz	x8, .L50
.L60:
	.loc 1 101 0
	ldr	w2, [x28,240]
	and	x1, x7, 2
	ldr	w6, [x28,276]
	add	x3, x28, 248
	adrp	x0, .LC2
	str	x1, [sp]
	str	w2, [sp,8]
	add	x0, x0, :lo12:.LC2
	str	x3, [sp,16]
	mov	x1, x25
	mov	x2, x28
	mov	x3, x26
	str	x8, [sp,24]
	and	x7, x7, 1
	bl	printk
.LVL27:
.L51:
	.loc 1 109 0
	adrp	x0, .LC4
	mov	x1, x25
	add	x0, x0, :lo12:.LC4
	add	x2, x29, 120
	bl	printk
.LVL28:
	.loc 1 110 0
	ldr	x1, [x29,632]
	ldr	x0, [x24,#:lo12:__stack_chk_guard]
	cmp	x1, x0
	bne	.L59
	add	sp, x29, 0
	.cfi_remember_state
	.cfi_def_cfa_register 31
	ldp	x19, x20, [sp,16]
	.cfi_restore 20
	.cfi_restore 19
	ldp	x21, x22, [sp,32]
	.cfi_restore 22
	.cfi_restore 21
.LVL29:
	ldp	x23, x24, [sp,48]
	.cfi_restore 24
	.cfi_restore 23
	ldp	x25, x26, [sp,64]
	.cfi_restore 26
	.cfi_restore 25
.LVL30:
	ldp	x27, x28, [sp,80]
	.cfi_restore 28
	.cfi_restore 27
.LVL31:
	ldp	x29, x30, [sp], 96
	.cfi_restore 30
	.cfi_restore 29
	.cfi_def_cfa_offset 544
	add	sp, sp, 544
	.cfi_def_cfa_offset 448
	ret
.LVL32:
.L53:
	.cfi_restore_state
	.loc 1 95 0
	ldr	x8, [x28,232]
	.loc 1 80 0
	adrp	x5, .LC0
	add	x5, x5, :lo12:.LC0
.LVL33:
	.loc 1 101 0
	ldr	x7, [x28,264]
	ldr	w4, [x28,104]
	.loc 1 95 0
	cbnz	x8, .L60
.L50:
	.loc 1 106 0
	and	x2, x7, 2
	ldr	w6, [x28,276]
	adrp	x0, .LC3
	mov	x1, x25
	str	x2, [sp]
	mov	x3, x26
	mov	x2, x28
	and	x7, x7, 1
	add	x0, x0, :lo12:.LC3
	bl	printk
.LVL34:
	b	.L51
.L59:
	.loc 1 110 0
	bl	__stack_chk_fail
.LVL35:
	.cfi_endproc
.LFE2695:
	.size	hisi_blk_dump_request, .-hisi_blk_dump_request
	.align	2
	.global	hisi_blk_dump_bio
	.type	hisi_blk_dump_bio, %function
hisi_blk_dump_bio:
.LFB2696:
	.loc 1 116 0
	.cfi_startproc
.LVL36:
	sub	sp, sp, #544
	.cfi_def_cfa_offset 544
	stp	x29, x30, [sp, -64]!
	.cfi_def_cfa_offset 608
	.cfi_offset 29, -608
	.cfi_offset 30, -600
	add	x29, sp, 0
	.cfi_def_cfa_register 29
	stp	x23, x24, [sp,48]
	stp	x19, x20, [sp,16]
	stp	x21, x22, [sp,32]
	.cfi_offset 23, -560
	.cfi_offset 24, -552
	.cfi_offset 19, -592
	.cfi_offset 20, -584
	.cfi_offset 21, -576
	.cfi_offset 22, -568
	.loc 1 116 0
	adrp	x23, __stack_chk_guard
	mov	x21, x1
	.loc 1 121 0
	ldr	w1, [x0,20]
.LVL37:
	.loc 1 116 0
	mov	x19, x0
	.loc 1 121 0
	add	x2, x29, 72
	.loc 1 116 0
	ldr	x3, [x23,#:lo12:__stack_chk_guard]
	.loc 1 121 0
	ubfx	x0, x1, 29, 3
.LVL38:
	uxtw	x1, w1
	.loc 1 116 0
	str	x3, [x29,600]
	.loc 1 121 0
	bl	hisi_blk_io_type_parse.constprop.2
.LVL39:
	mov	x24, x0
.LVL40:
	.loc 1 124 0
	ldr	x4, [x19,152]
	cbnz	x4, .L83
	ldr	x4, [x19,160]
	.loc 1 119 0
	mov	w20, 0
.LVL41:
	add	x22, x29, 88
	.loc 1 124 0
	cbnz	x4, .L84
.L63:
	ldr	x4, [x19,168]
	cbnz	x4, .L85
.L64:
	ldr	x4, [x19,176]
	cbnz	x4, .L86
.L65:
	.loc 1 130 0
	ldr	x0, [x19,112]
	.loc 1 137 0
	ldr	w4, [x19,40]
	.loc 1 130 0
	cbz	x0, .L66
.L88:
	.loc 1 137 0
	adrp	x0, .LC5
	ldr	w5, [x19,120]
	add	x0, x0, :lo12:.LC5
	mov	x1, x21
	mov	x2, x19
	mov	x3, x24
	add	x6, x19, 128
	bl	printk
.LVL42:
.L67:
	.loc 1 144 0
	bl	ktime_get
.LVL43:
	mov	x3, x0
	.loc 1 144 0 is_stmt 0 discriminator 1
	adrp	x0, .LC7
	mov	x1, x21
	add	x0, x0, :lo12:.LC7
	mov	x2, x22
	bl	printk
.LVL44:
	.loc 1 146 0 is_stmt 1
	ldr	x0, [x19,104]
	cbz	x0, .L61
	.loc 1 147 0
	mov	x1, x21
	bl	hisi_blk_dump_request
.LVL45:
.L61:
	.loc 1 148 0
	ldr	x1, [x29,600]
	ldr	x0, [x23,#:lo12:__stack_chk_guard]
	cmp	x1, x0
	bne	.L87
	ldp	x19, x20, [sp,16]
	.cfi_remember_state
	.cfi_restore 20
	.cfi_restore 19
.LVL46:
	ldp	x21, x22, [sp,32]
	.cfi_restore 22
	.cfi_restore 21
.LVL47:
	ldp	x23, x24, [sp,48]
	.cfi_restore 24
	.cfi_restore 23
.LVL48:
	ldp	x29, x30, [sp], 64
	.cfi_restore 30
	.cfi_restore 29
	.cfi_def_cfa 31, 544
	add	sp, sp, 544
	.cfi_def_cfa_offset 480
	ret
.LVL49:
.L83:
	.cfi_restore_state
	.loc 1 126 0
	adrp	x3, bio_stage_cfg
	add	x22, x29, 88
	adrp	x2, .LC1
	mov	x0, x22
	mov	x1, 512
	add	x2, x2, :lo12:.LC1
	ldr	x3, [x3,#:lo12:bio_stage_cfg]
	bl	snprintf
.LVL50:
	mov	w20, w0
.LVL51:
	.loc 1 124 0
	ldr	x4, [x19,160]
	cbz	x4, .L63
.L84:
	.loc 1 126 0
	adrp	x0, bio_stage_cfg+16
	mov	w1, 512
	sub	w1, w1, w20
	adrp	x2, .LC1
	add	x2, x2, :lo12:.LC1
	ldr	x3, [x0,#:lo12:bio_stage_cfg+16]
	sxtw	x1, w1
	add	x0, x22, x20, sxtw
	bl	snprintf
.LVL52:
	add	w20, w20, w0
	.loc 1 124 0
	ldr	x4, [x19,168]
	cbz	x4, .L64
.L85:
	.loc 1 126 0
	adrp	x0, bio_stage_cfg+32
	mov	w1, 512
	sub	w1, w1, w20
	adrp	x2, .LC1
	add	x2, x2, :lo12:.LC1
	ldr	x3, [x0,#:lo12:bio_stage_cfg+32]
	sxtw	x1, w1
	add	x0, x22, x20, sxtw
	bl	snprintf
.LVL53:
	add	w20, w20, w0
	.loc 1 124 0
	ldr	x4, [x19,176]
	cbz	x4, .L65
.L86:
	.loc 1 126 0
	adrp	x0, bio_stage_cfg+48
	mov	w1, 512
	sub	w1, w1, w20
	adrp	x2, .LC1
	add	x2, x2, :lo12:.LC1
	ldr	x3, [x0,#:lo12:bio_stage_cfg+48]
	sxtw	x1, w1
	add	x0, x22, x20, sxtw
	bl	snprintf
.LVL54:
	.loc 1 130 0
	ldr	x0, [x19,112]
	.loc 1 137 0
	ldr	w4, [x19,40]
	.loc 1 130 0
	cbnz	x0, .L88
.L66:
	.loc 1 142 0
	adrp	x0, .LC6
	mov	x1, x21
	mov	x2, x19
	mov	x3, x24
	add	x0, x0, :lo12:.LC6
	bl	printk
.LVL55:
	b	.L67
.L87:
	.loc 1 148 0
	bl	__stack_chk_fail
.LVL56:
	.cfi_endproc
.LFE2696:
	.size	hisi_blk_dump_bio, .-hisi_blk_dump_bio
	.align	2
	.global	hisi_blk_dump_queue_status2
	.type	hisi_blk_dump_queue_status2, %function
hisi_blk_dump_queue_status2:
.LFB2697:
	.loc 1 173 0
	.cfi_startproc
.LVL57:
	stp	x29, x30, [sp, -64]!
	.cfi_def_cfa_offset 64
	.cfi_offset 29, -64
	.cfi_offset 30, -56
	add	x29, sp, 0
	.cfi_def_cfa_register 29
	stp	x19, x20, [sp,16]
	stp	x21, x22, [sp,32]
	stp	x23, x24, [sp,48]
	.cfi_offset 19, -48
	.cfi_offset 20, -40
	.cfi_offset 21, -32
	.cfi_offset 22, -24
	.cfi_offset 23, -16
	.cfi_offset 24, -8
	.loc 1 173 0
	mov	x21, x1
	mov	x20, x2
	mov	x23, x0
	.loc 1 176 0
	mov	x0, x1
.LVL58:
	mov	x1, x2
.LVL59:
	adrp	x2, .LC10
.LVL60:
	.loc 1 173 0
	uxtb	w22, w3
.LVL61:
	.loc 1 176 0
	add	x2, x2, :lo12:.LC10
	.loc 1 175 0
	mov	x24, 0
	.loc 1 176 0
	bl	snprintf
.LVL62:
	sxtw	x19, w0
	.loc 1 177 0
	cbnz	w22, .L111
.L90:
	.loc 1 181 0
	cmp	x20, x19
	bls	.L91
	.loc 1 184 0
	ldrb	w0, [x23,1176]
	cbz	w0, .L92
	.loc 1 185 0
	ldr	w3, [x23,1180]
	adrp	x2, .LC12
	add	x0, x21, x19
	sub	x1, x20, x19
	add	x2, x2, :lo12:.LC12
	bl	snprintf
.LVL63:
	add	x19, x19, x0, sxtw
.L93:
	.loc 1 190 0
	cbnz	w22, .L112
.L94:
	.loc 1 194 0
	cmp	x19, x20
	bcs	.L91
	.loc 1 197 0
	ldrb	w2, [x23,1177]
	add	x0, x21, x19
	sub	x1, x20, x19
	cbnz	w2, .L99
	.loc 1 197 0 is_stmt 0 discriminator 2
	adrp	x3, .LC9
	add	x3, x3, :lo12:.LC9
.L95:
	.loc 1 197 0 discriminator 4
	adrp	x2, .LC14
	add	x2, x2, :lo12:.LC14
	bl	snprintf
.LVL64:
	add	x19, x19, x0, sxtw
	.loc 1 199 0 is_stmt 1
	cbnz	w22, .L113
.L96:
	.loc 1 203 0
	cmp	x20, x19
	bls	.L91
	.loc 1 206 0
	ldrb	w2, [x23,1160]
	add	x0, x21, x19
	sub	x1, x20, x19
	cbnz	w2, .L100
	.loc 1 206 0 is_stmt 0 discriminator 2
	adrp	x3, .LC9
	add	x3, x3, :lo12:.LC9
.L97:
	.loc 1 206 0 discriminator 4
	adrp	x2, .LC15
	add	x2, x2, :lo12:.LC15
	bl	snprintf
.LVL65:
	add	x19, x19, x0, sxtw
	.loc 1 208 0 is_stmt 1
	cbnz	w22, .L114
.L91:
	.loc 1 217 0
	mov	x0, x19
	ldp	x19, x20, [sp,16]
	.cfi_remember_state
	.cfi_restore 20
	.cfi_restore 19
.LVL66:
	ldp	x21, x22, [sp,32]
	.cfi_restore 22
	.cfi_restore 21
.LVL67:
	ldp	x23, x24, [sp,48]
	.cfi_restore 24
	.cfi_restore 23
.LVL68:
	ldp	x29, x30, [sp], 64
	.cfi_restore 30
	.cfi_restore 29
	.cfi_def_cfa 31, 0
	ret
.LVL69:
.L92:
	.cfi_restore_state
	.loc 1 188 0
	adrp	x2, .LC13
	add	x0, x21, x19
	sub	x1, x20, x19
	add	x2, x2, :lo12:.LC13
	bl	snprintf
.LVL70:
	add	x19, x19, x0, sxtw
	b	.L93
.L99:
	.loc 1 197 0 discriminator 1
	adrp	x3, .LC8
	add	x3, x3, :lo12:.LC8
	b	.L95
.L100:
	.loc 1 206 0 discriminator 1
	adrp	x3, .LC8
	add	x3, x3, :lo12:.LC8
	b	.L97
.L114:
	.loc 1 209 0
	adrp	x0, .LC11
	add	x1, x21, x24
	add	x0, x0, :lo12:.LC11
	bl	printk
.LVL71:
	b	.L91
.L111:
	.loc 1 178 0
	adrp	x0, .LC11
	mov	x1, x21
	add	x0, x0, :lo12:.LC11
	.loc 1 176 0
	mov	x24, x19
	.loc 1 178 0
	bl	printk
.LVL72:
	b	.L90
.L112:
	.loc 1 191 0
	adrp	x0, .LC11
	add	x1, x21, x24
	add	x0, x0, :lo12:.LC11
	mov	x24, x19
	bl	printk
.LVL73:
	b	.L94
.L113:
	.loc 1 200 0
	adrp	x0, .LC11
	add	x1, x21, x24
	add	x0, x0, :lo12:.LC11
	.loc 1 197 0 discriminator 4
	mov	x24, x19
	.loc 1 200 0
	bl	printk
.LVL74:
	b	.L96
	.cfi_endproc
.LFE2697:
	.size	hisi_blk_dump_queue_status2, .-hisi_blk_dump_queue_status2
	.align	2
	.global	hisi_blk_dump_queue_status
	.type	hisi_blk_dump_queue_status, %function
hisi_blk_dump_queue_status:
.LFB2698:
	.loc 1 223 0
	.cfi_startproc
.LVL75:
	sub	sp, sp, #528
	.cfi_def_cfa_offset 528
	stp	x29, x30, [sp, -48]!
	.cfi_def_cfa_offset 576
	.cfi_offset 29, -576
	.cfi_offset 30, -568
	add	x29, sp, 0
	.cfi_def_cfa_register 29
	stp	x19, x20, [sp,16]
	.cfi_offset 19, -560
	.cfi_offset 20, -552
	adrp	x19, __stack_chk_guard
	mov	x20, x0
	stp	x21, x22, [sp,32]
	.cfi_offset 21, -544
	.cfi_offset 22, -536
	.loc 1 223 0
	mov	x22, x1
	mov	w21, w2
	ldr	x1, [x19,#:lo12:__stack_chk_guard]
.LVL76:
	.loc 1 224 0
	ldr	x0, [x0,1016]
.LVL77:
	.loc 1 223 0
	str	x1, [x29,568]
	.loc 1 224 0
	cbnz	x0, .L124
.L115:
	.loc 1 241 0
	ldr	x1, [x29,568]
	ldr	x0, [x19,#:lo12:__stack_chk_guard]
	cmp	x1, x0
	bne	.L125
	ldp	x19, x20, [sp,16]
	.cfi_remember_state
	.cfi_restore 20
	.cfi_restore 19
.LVL78:
	ldp	x21, x22, [sp,32]
	.cfi_restore 22
	.cfi_restore 21
.LVL79:
	ldp	x29, x30, [sp], 48
	.cfi_restore 30
	.cfi_restore 29
	.cfi_def_cfa 31, 528
	add	sp, sp, 528
	.cfi_def_cfa_offset 480
	ret
.LVL80:
.L124:
	.cfi_restore_state
	.loc 1 230 0
	ldrb	w1, [x20,1024]
	add	x2, x0, 12
	cbnz	w1, .L120
	.loc 1 230 0 is_stmt 0 discriminator 2
	adrp	x3, .LC16
	add	x3, x3, :lo12:.LC16
.L117:
.LBB141:
.LBB142:
.LBB143:
	.loc 2 247 0 is_stmt 1 discriminator 4
	ldr	w4, [x0,952]
.LBE143:
.LBE142:
.LBE141:
	.loc 1 230 0 discriminator 16
	mov	x1, x22
.LBB144:
.LBB145:
.LBB146:
	.loc 2 247 0 discriminator 4
	ldr	w5, [x0,956]
.LBE146:
.LBE145:
.LBE144:
	.loc 1 230 0 discriminator 16
	adrp	x0, .LC18
	add	x0, x0, :lo12:.LC18
	bl	printk
.LVL81:
	.loc 1 234 0
	cmp	w21, 1
	beq	.L126
.L118:
	mov	x0, x20
	mov	x1, x22
	mov	w2, w21
	bl	hisi_blk_dump_queue_status.part.0
.LVL82:
	b	.L115
.L125:
	.loc 1 241 0
	bl	__stack_chk_fail
.LVL83:
.L120:
	.loc 1 230 0 discriminator 1
	adrp	x3, .LC17
	add	x3, x3, :lo12:.LC17
	b	.L117
.L126:
.LBB147:
	.loc 1 236 0
	mov	x0, x20
	add	x1, x29, 56
	mov	x2, 512
	mov	w3, w21
	bl	hisi_blk_dump_queue_status2
.LVL84:
	b	.L118
.LBE147:
	.cfi_endproc
.LFE2698:
	.size	hisi_blk_dump_queue_status, .-hisi_blk_dump_queue_status
	.align	2
	.global	hisi_blk_dump_lld_status
	.type	hisi_blk_dump_lld_status, %function
hisi_blk_dump_lld_status:
.LFB2699:
	.loc 1 247 0
	.cfi_startproc
.LVL85:
	stp	x29, x30, [sp, -80]!
	.cfi_def_cfa_offset 80
	.cfi_offset 29, -80
	.cfi_offset 30, -72
	add	x29, sp, 0
	.cfi_def_cfa_register 29
	stp	x19, x20, [sp,16]
	stp	x21, x22, [sp,32]
	stp	x23, x24, [sp,48]
	.cfi_offset 19, -64
	.cfi_offset 20, -56
	.cfi_offset 21, -48
	.cfi_offset 22, -40
	.cfi_offset 23, -32
	.cfi_offset 24, -24
	mov	x21, x1
	mov	x20, x2
	mov	x23, x0
	.loc 1 250 0
	mov	x0, x1
.LVL86:
	mov	x1, x2
.LVL87:
	adrp	x2, .LC19
.LVL88:
	.loc 1 247 0
	uxtb	w22, w3
.LVL89:
	.loc 1 250 0
	add	x2, x2, :lo12:.LC19
	.loc 1 247 0
	stp	x25, x26, [sp,64]
	.cfi_offset 25, -16
	.cfi_offset 26, -8
	.loc 1 249 0
	mov	x24, 0
	.loc 1 250 0
	bl	snprintf
.LVL90:
	sxtw	x19, w0
	.loc 1 251 0
	cbnz	w22, .L180
.L128:
	.loc 1 255 0
	cmp	x20, x19
	bls	.L163
	.loc 1 259 0
	ldr	x2, [x23,24]
	.loc 1 258 0
	add	x0, x21, x19
	sub	x1, x20, x19
	tbnz	x2, 0, .L152
	.loc 1 258 0 is_stmt 0 discriminator 2
	adrp	x3, .LC9
	add	x3, x3, :lo12:.LC9
.L130:
	.loc 1 258 0 discriminator 4
	adrp	x2, .LC20
	add	x2, x2, :lo12:.LC20
	bl	snprintf
.LVL91:
	add	x19, x19, x0, sxtw
	.loc 1 260 0 is_stmt 1
	cbnz	w22, .L181
.L131:
	.loc 1 264 0
	cmp	x20, x19
	bls	.L163
	.loc 1 267 0
	ldr	x0, [x23,24]
	tbz	x0, 1, .L132
	.loc 1 268 0
	ldr	w3, [x23,48]
	adrp	x2, .LC12
	add	x0, x21, x19
	sub	x1, x20, x19
	add	x2, x2, :lo12:.LC12
	bl	snprintf
.LVL92:
	add	x19, x19, x0, sxtw
.L133:
	.loc 1 273 0
	cbnz	w22, .L182
.L134:
	.loc 1 277 0
	cmp	x19, x20
	bcs	.L163
	.loc 1 281 0
	ldr	x2, [x23,24]
	.loc 1 280 0
	add	x0, x21, x19
	sub	x1, x20, x19
	tbnz	x2, 2, .L153
	.loc 1 280 0 is_stmt 0 discriminator 2
	adrp	x3, .LC9
	add	x3, x3, :lo12:.LC9
.L135:
	.loc 1 280 0 discriminator 4
	adrp	x2, .LC14
	add	x2, x2, :lo12:.LC14
	bl	snprintf
.LVL93:
	add	x19, x19, x0, sxtw
	.loc 1 282 0 is_stmt 1
	cbnz	w22, .L183
.L136:
	.loc 1 286 0
	cmp	x20, x19
	bls	.L163
	.loc 1 290 0
	ldr	x2, [x23,24]
	.loc 1 289 0
	add	x0, x21, x19
	sub	x1, x20, x19
	tbnz	x2, 4, .L154
	.loc 1 289 0 is_stmt 0 discriminator 2
	adrp	x3, .LC9
	add	x3, x3, :lo12:.LC9
.L137:
	.loc 1 289 0 discriminator 4
	adrp	x2, .LC21
	add	x2, x2, :lo12:.LC21
	bl	snprintf
.LVL94:
	add	x19, x19, x0, sxtw
	.loc 1 291 0 is_stmt 1
	cmp	x20, x19
	bls	.L163
	.loc 1 293 0
	ldr	w0, [x23,336]
	cbz	w0, .L138
	cmp	w0, 1
	bne	.L163
	.loc 1 298 0
	adrp	x2, .LC23
	add	x0, x21, x19
	sub	x1, x20, x19
	add	x2, x2, :lo12:.LC23
	bl	snprintf
.LVL95:
	add	x19, x19, x0, sxtw
.L140:
	.loc 1 303 0
	cmp	x19, x20
	bcs	.L163
.LBB148:
.LBB149:
.LBB150:
	.loc 2 247 0 discriminator 4
	ldr	w3, [x23,256]
.LBE150:
.LBE149:
.LBE148:
	.loc 1 305 0 discriminator 6
	adrp	x2, .LC24
	add	x0, x21, x19
	sub	x1, x20, x19
	add	x2, x2, :lo12:.LC24
	bl	snprintf
.LVL96:
	.loc 1 305 0 is_stmt 0 discriminator 5
	add	x19, x19, x0, sxtw
	.loc 1 306 0 is_stmt 1
	cbnz	w22, .L184
.L141:
	.loc 1 310 0
	cmp	x20, x19
	bls	.L163
	.loc 1 314 0
	ldr	x2, [x23,24]
	.loc 1 313 0
	add	x0, x21, x19
	sub	x1, x20, x19
	tbnz	x2, 3, .L155
	.loc 1 313 0 is_stmt 0 discriminator 2
	adrp	x3, .LC9
	add	x3, x3, :lo12:.LC9
.L142:
	.loc 1 313 0 discriminator 4
	adrp	x2, .LC15
	add	x2, x2, :lo12:.LC15
	bl	snprintf
.LVL97:
	add	x19, x19, x0, sxtw
	.loc 1 315 0 is_stmt 1
	cbnz	w22, .L185
.L143:
	.loc 1 319 0
	cmp	x20, x19
	bls	.L163
	.loc 1 323 0
	ldr	x2, [x23,24]
	.loc 1 322 0
	add	x0, x21, x19
	sub	x1, x20, x19
	tbnz	x2, 5, .L156
	.loc 1 322 0 is_stmt 0 discriminator 2
	adrp	x3, .LC9
	add	x3, x3, :lo12:.LC9
.L144:
	.loc 1 322 0 discriminator 4
	adrp	x2, .LC25
	add	x2, x2, :lo12:.LC25
	bl	snprintf
.LVL98:
	add	x19, x19, x0, sxtw
	.loc 1 324 0 is_stmt 1
	cbnz	w22, .L186
	.loc 1 328 0
	cmp	x20, x19
	bls	.L163
	.loc 1 331 0
	adrp	x2, .LC28
	add	x0, x21, x19
	sub	x1, x20, x19
	add	x2, x2, :lo12:.LC28
	bl	snprintf
.LVL99:
	add	x19, x19, x0, sxtw
.L149:
	.loc 1 336 0
	cmp	x20, x19
	bls	.L163
	.loc 1 338 0
	ldr	x0, [x23,24]
	tbz	x0, 6, .L147
	.loc 1 339 0
	adrp	x2, .LC26
	add	x0, x21, x19
	sub	x1, x20, x19
	add	x2, x2, :lo12:.LC26
	bl	snprintf
.LVL100:
	add	x19, x19, x0, sxtw
.L148:
	.loc 1 342 0
	cbz	w22, .L163
	.loc 1 343 0
	adrp	x0, .LC11
	add	x1, x21, x24
	add	x0, x0, :lo12:.LC11
	bl	printk
.LVL101:
.L163:
	.loc 1 350 0
	mov	x0, x19
	ldp	x19, x20, [sp,16]
	.cfi_remember_state
	.cfi_restore 20
	.cfi_restore 19
.LVL102:
	ldp	x21, x22, [sp,32]
	.cfi_restore 22
	.cfi_restore 21
.LVL103:
	ldp	x23, x24, [sp,48]
	.cfi_restore 24
	.cfi_restore 23
.LVL104:
	ldp	x25, x26, [sp,64]
	.cfi_restore 26
	.cfi_restore 25
	ldp	x29, x30, [sp], 80
	.cfi_restore 30
	.cfi_restore 29
	.cfi_def_cfa 31, 0
	ret
.LVL105:
.L152:
	.cfi_restore_state
	.loc 1 258 0 discriminator 1
	adrp	x3, .LC8
	add	x3, x3, :lo12:.LC8
	b	.L130
.L132:
	.loc 1 271 0
	adrp	x2, .LC13
	add	x0, x21, x19
	sub	x1, x20, x19
	add	x2, x2, :lo12:.LC13
	bl	snprintf
.LVL106:
	add	x19, x19, x0, sxtw
	b	.L133
.L153:
	.loc 1 280 0 discriminator 1
	adrp	x3, .LC8
	add	x3, x3, :lo12:.LC8
	b	.L135
.L154:
	.loc 1 289 0 discriminator 1
	adrp	x3, .LC8
	add	x3, x3, :lo12:.LC8
	b	.L137
.L138:
	.loc 1 295 0
	adrp	x2, .LC22
	add	x0, x21, x19
	sub	x1, x20, x19
	add	x2, x2, :lo12:.LC22
	bl	snprintf
.LVL107:
	add	x19, x19, x0, sxtw
	.loc 1 296 0
	b	.L140
.L155:
	.loc 1 313 0 discriminator 1
	adrp	x3, .LC8
	add	x3, x3, :lo12:.LC8
	b	.L142
.L156:
	.loc 1 322 0 discriminator 1
	adrp	x3, .LC8
	add	x3, x3, :lo12:.LC8
	b	.L144
.L147:
	.loc 1 341 0
	adrp	x2, .LC27
	add	x0, x21, x19
	sub	x1, x20, x19
	add	x2, x2, :lo12:.LC27
	bl	snprintf
.LVL108:
	add	x19, x19, x0, sxtw
	b	.L148
.L180:
	.loc 1 252 0
	adrp	x0, .LC11
	mov	x1, x21
	add	x0, x0, :lo12:.LC11
	.loc 1 250 0
	mov	x24, x19
	.loc 1 252 0
	bl	printk
.LVL109:
	b	.L128
.L181:
	.loc 1 261 0
	adrp	x0, .LC11
	add	x1, x21, x24
	add	x0, x0, :lo12:.LC11
	.loc 1 258 0 discriminator 4
	mov	x24, x19
	.loc 1 261 0
	bl	printk
.LVL110:
	b	.L131
.L183:
	.loc 1 283 0
	adrp	x0, .LC11
	add	x1, x21, x24
	add	x0, x0, :lo12:.LC11
	.loc 1 280 0 discriminator 4
	mov	x24, x19
	.loc 1 283 0
	bl	printk
.LVL111:
	b	.L136
.L182:
	.loc 1 274 0
	adrp	x0, .LC11
	add	x1, x21, x24
	add	x0, x0, :lo12:.LC11
	mov	x24, x19
	bl	printk
.LVL112:
	b	.L134
.L184:
	.loc 1 307 0
	adrp	x0, .LC11
	add	x1, x21, x24
	add	x0, x0, :lo12:.LC11
	.loc 1 305 0 discriminator 5
	mov	x24, x19
	.loc 1 307 0
	bl	printk
.LVL113:
	b	.L141
.L185:
	.loc 1 316 0
	adrp	x0, .LC11
	add	x1, x21, x24
	add	x0, x0, :lo12:.LC11
	.loc 1 313 0 discriminator 4
	mov	x24, x19
	.loc 1 316 0
	bl	printk
.LVL114:
	b	.L143
.L186:
	.loc 1 325 0
	adrp	x25, .LC11
	add	x1, x21, x24
	add	x25, x25, :lo12:.LC11
	mov	x0, x25
	bl	printk
.LVL115:
	.loc 1 328 0
	cmp	x20, x19
	bls	.L163
.L129:
	.loc 1 331 0
	add	x26, x21, x19
	adrp	x2, .LC28
	sub	x1, x20, x19
	add	x2, x2, :lo12:.LC28
	mov	x0, x26
	bl	snprintf
.LVL116:
	add	x24, x19, x0, sxtw
	.loc 1 333 0
	mov	x1, x26
	mov	x0, x25
	.loc 1 331 0
	mov	x19, x24
	.loc 1 333 0
	bl	printk
.LVL117:
	b	.L149
	.cfi_endproc
.LFE2699:
	.size	hisi_blk_dump_lld_status, .-hisi_blk_dump_lld_status
	.align	2
	.type	hisi_blk_dump_queue, %function
hisi_blk_dump_queue:
.LFB2700:
	.loc 1 353 0
	.cfi_startproc
.LVL118:
	sub	sp, sp, #528
	.cfi_def_cfa_offset 528
	stp	x29, x30, [sp, -48]!
	.cfi_def_cfa_offset 576
	.cfi_offset 29, -576
	.cfi_offset 30, -568
	add	x29, sp, 0
	.cfi_def_cfa_register 29
	stp	x19, x20, [sp,16]
	.cfi_offset 19, -560
	.cfi_offset 20, -552
	adrp	x20, __stack_chk_guard
	str	x21, [sp,32]
	.cfi_offset 21, -544
	.loc 1 353 0
	mov	x21, x0
	ldr	x1, [x20,#:lo12:__stack_chk_guard]
	str	x1, [x29,568]
	.loc 1 354 0
	bl	hisi_blk_get_lld
.LVL119:
	.loc 1 356 0
	ldr	x1, [x0,40]
	.loc 1 354 0
	mov	x19, x0
.LVL120:
	.loc 1 356 0
	cbz	x1, .L188
.LBB151:
	.loc 1 358 0
	add	x1, x29, 56
	mov	x2, 512
	mov	w3, 1
	bl	hisi_blk_dump_lld_status
.LVL121:
	.loc 1 362 0
	ldr	x2, [x19,40]
	mov	x0, x21
	mov	w1, 1
	blr	x2
.LVL122:
	.loc 1 363 0
	str	xzr, [x19,40]
.L188:
.LBE151:
	.loc 1 366 0
	adrp	x1, .LC29
	mov	x0, x21
	add	x1, x1, :lo12:.LC29
	mov	w2, 1
	bl	hisi_blk_dump_queue_status
.LVL123:
	.loc 1 374 0
	ldr	x1, [x29,568]
	ldr	x0, [x20,#:lo12:__stack_chk_guard]
	cmp	x1, x0
	bne	.L193
	ldp	x19, x20, [sp,16]
	.cfi_remember_state
	.cfi_restore 20
	.cfi_restore 19
.LVL124:
	ldr	x21, [sp,32]
	.cfi_restore 21
.LVL125:
	ldp	x29, x30, [sp], 48
	.cfi_restore 30
	.cfi_restore 29
	.cfi_def_cfa 31, 528
	add	sp, sp, 528
	.cfi_def_cfa_offset 480
	ret
.LVL126:
.L193:
	.cfi_restore_state
	bl	__stack_chk_fail
.LVL127:
	.cfi_endproc
.LFE2700:
	.size	hisi_blk_dump_queue, .-hisi_blk_dump_queue
	.align	2
	.type	hisi_blk_dump_panic_notify, %function
hisi_blk_dump_panic_notify:
.LFB2702:
	.loc 1 389 0
	.cfi_startproc
.LVL128:
	stp	x29, x30, [sp, -48]!
	.cfi_def_cfa_offset 48
	.cfi_offset 29, -48
	.cfi_offset 30, -40
	add	x29, sp, 0
	.cfi_def_cfa_register 29
	stp	x19, x20, [sp,16]
	str	x21, [sp,32]
	.cfi_offset 19, -32
	.cfi_offset 20, -24
	.cfi_offset 21, -16
	.loc 1 390 0
	bl	ktime_get
.LVL129:
	.loc 1 391 0
	adrp	x21, .LANCHOR1
	.loc 1 390 0
	mov	x2, x0
.LVL130:
	.loc 1 391 0
	add	x1, x21, :lo12:.LANCHOR1
	adrp	x0, .LC30
	add	x0, x0, :lo12:.LC30
	add	x1, x1, 24
	bl	printk
.LVL131:
.LBB157:
.LBB158:
.LBB159:
	.loc 1 381 0
	adrp	x0, .LANCHOR0
	add	x0, x0, :lo12:.LANCHOR0
	add	x20, x0, 24
	ldr	x19, [x0,24]
.LVL132:
	b	.L201
.LVL133:
.L202:
.LBE159:
	.loc 1 383 0
	sub	x0, x19, #1016
	bl	hisi_blk_dump_queue
.LVL134:
.LBB160:
	.loc 1 381 0 discriminator 3
	ldr	x19, [x19,11904]
.LVL135:
.L201:
.LBE160:
	.loc 1 381 0 is_stmt 0 discriminator 1
	mov	x0, x19
.LBB161:
	.loc 1 381 0
	sub	x19, x19, #8192
.LVL136:
.LBE161:
	.loc 1 381 0 discriminator 1
	cmp	x20, x0
	sub	x19, x19, #3712
.LVL137:
	bne	.L202
.LBE158:
.LBE157:
	.loc 1 393 0 is_stmt 1
	add	x1, x21, :lo12:.LANCHOR1
	adrp	x0, .LC31
	add	x1, x1, 24
	add	x0, x0, :lo12:.LC31
	bl	printk
.LVL138:
	.loc 1 395 0
	ldr	x21, [sp,32]
	.cfi_restore 21
	mov	w0, 0
	ldp	x19, x20, [sp,16]
	.cfi_restore 20
	.cfi_restore 19
.LVL139:
	ldp	x29, x30, [sp], 48
	.cfi_restore 30
	.cfi_restore 29
	.cfi_def_cfa 31, 0
	ret
	.cfi_endproc
.LFE2702:
	.size	hisi_blk_dump_panic_notify, .-hisi_blk_dump_panic_notify
	.align	2
	.global	hisi_blk_dump_register_queue
	.type	hisi_blk_dump_register_queue, %function
hisi_blk_dump_register_queue:
.LFB2703:
	.loc 1 401 0
	.cfi_startproc
.LVL140:
	stp	x29, x30, [sp, -48]!
	.cfi_def_cfa_offset 48
	.cfi_offset 29, -48
	.cfi_offset 30, -40
	add	x29, sp, 0
	.cfi_def_cfa_register 29
	stp	x19, x20, [sp,16]
	str	x21, [sp,32]
	.cfi_offset 19, -32
	.cfi_offset 20, -24
	.cfi_offset 21, -16
	.loc 1 401 0
	mov	x20, x0
	.loc 1 402 0
	bl	hisi_blk_get_lld
.LVL141:
	.loc 1 403 0
	ldr	x0, [x0,24]
	tbz	x0, 0, .L203
.LBB185:
.LBB186:
	.loc 1 404 0
	add	x19, x20, 12288
.LBB187:
.LBB188:
.LBB189:
.LBB190:
	.loc 2 247 0 discriminator 5
	ldr	x0, [x20,12920]
.LBE190:
.LBE189:
.LBE188:
.LBE187:
	.loc 1 404 0
	add	x19, x19, 632
	cmp	x19, x0
	beq	.L208
.L203:
.LBE186:
.LBE185:
	.loc 1 410 0
	ldp	x19, x20, [sp,16]
	.cfi_remember_state
	.cfi_restore 20
	.cfi_restore 19
.LVL142:
	ldr	x21, [sp,32]
	.cfi_restore 21
	ldp	x29, x30, [sp], 48
	.cfi_restore 30
	.cfi_restore 29
	.cfi_def_cfa 31, 0
	ret
.LVL143:
.L208:
	.cfi_restore_state
.LBB209:
.LBB208:
.LBB191:
.LBB192:
	.loc 3 302 0
	adrp	x21, .LANCHOR0
	add	x21, x21, :lo12:.LANCHOR0
	mov	x0, x21
	bl	_raw_spin_lock
.LVL144:
.LBE192:
.LBE191:
.LBB193:
.LBB194:
	.loc 4 77 0
	ldr	x2, [x21,32]
	add	x1, x21, 24
.LBB195:
.LBB196:
	.loc 4 43 0
	str	x1, [x20,12920]
.LBE196:
.LBE195:
.LBE194:
.LBE193:
.LBB203:
.LBB204:
	.loc 3 347 0
	mov	x0, x21
.LBE204:
.LBE203:
.LBB206:
.LBB202:
.LBB201:
.LBB200:
	.loc 4 42 0
	str	x19, [x21,32]
	.loc 4 44 0
	str	x2, [x19,8]
.LBB197:
.LBB198:
.LBB199:
	.loc 2 276 0
	str	x19, [x2]
.LBE199:
.LBE198:
.LBE197:
.LBE200:
.LBE201:
.LBE202:
.LBE206:
.LBB207:
.LBB205:
	.loc 3 347 0
	bl	_raw_spin_unlock
.LVL145:
	b	.L203
.LBE205:
.LBE207:
.LBE208:
.LBE209:
	.cfi_endproc
.LFE2703:
	.size	hisi_blk_dump_register_queue, .-hisi_blk_dump_register_queue
	.align	2
	.global	hisi_blk_dump_unregister_queue
	.type	hisi_blk_dump_unregister_queue, %function
hisi_blk_dump_unregister_queue:
.LFB2704:
	.loc 1 416 0
	.cfi_startproc
.LVL146:
	stp	x29, x30, [sp, -48]!
	.cfi_def_cfa_offset 48
	.cfi_offset 29, -48
	.cfi_offset 30, -40
	add	x29, sp, 0
	.cfi_def_cfa_register 29
	str	x21, [sp,32]
	.cfi_offset 21, -16
.LBB210:
.LBB211:
	.loc 3 302 0
	adrp	x21, .LANCHOR0
.LBE211:
.LBE210:
	.loc 1 416 0
	stp	x19, x20, [sp,16]
	.cfi_offset 19, -32
	.cfi_offset 20, -24
.LBB214:
.LBB212:
	.loc 3 302 0
	add	x19, x21, :lo12:.LANCHOR0
.LBE212:
.LBE214:
	.loc 1 416 0
	mov	x20, x0
.LBB215:
.LBB213:
	.loc 3 302 0
	mov	x0, x19
.LVL147:
	bl	_raw_spin_lock
.LVL148:
.LBE213:
.LBE215:
.LBB216:
	.loc 1 421 0
	ldr	x4, [x19,24]
.LVL149:
	add	x5, x19, 24
.LBE216:
.LBB217:
	sub	x3, x4, #8192
	sub	x3, x3, #3712
.LBE217:
	.loc 1 421 0 is_stmt 0 discriminator 1
	add	x1, x3, 8192
.LBB218:
	.loc 1 421 0
	ldr	x0, [x3,11904]
.LBE218:
	.loc 1 421 0 discriminator 1
	add	x2, x1, 3712
	cmp	x5, x2
.LBB219:
	.loc 1 421 0
	sub	x0, x0, #8192
	sub	x0, x0, #3712
.LBE219:
	.loc 1 421 0 discriminator 1
	beq	.L210
.LBB220:
	.loc 1 422 0 is_stmt 1
	sub	x2, x4, #12288
	sub	x2, x2, #632
.LBE220:
	.loc 1 423 0
	cmp	x20, x2
	bne	.L216
	b	.L217
.LVL150:
.L214:
	cmp	x20, x4
	beq	.L212
	.loc 1 421 0 discriminator 2
	mov	x0, x1
.LVL151:
.L216:
	.loc 1 421 0 is_stmt 0 discriminator 1
	add	x2, x0, 8192
.LBB221:
	.loc 1 421 0 discriminator 2
	ldr	x3, [x0,11904]
.LBE221:
	.loc 1 421 0 discriminator 1
	add	x1, x2, 3712
.LBB222:
	.loc 1 422 0 is_stmt 1
	sub	x4, x0, #1016
.LVL152:
.LBE222:
	.loc 1 421 0 discriminator 1
	cmp	x5, x1
.LBB223:
	.loc 1 421 0 is_stmt 0 discriminator 2
	sub	x1, x3, #8192
	sub	x1, x1, #3712
.LBE223:
	.loc 1 421 0 discriminator 1
	bne	.L214
.LVL153:
.L210:
.LBB224:
.LBB225:
	.loc 3 347 0 is_stmt 1
	add	x0, x21, :lo12:.LANCHOR0
	bl	_raw_spin_unlock
.LVL154:
.LBE225:
.LBE224:
	.loc 1 429 0
	ldr	x21, [sp,32]
	.cfi_remember_state
	.cfi_restore 21
	ldp	x19, x20, [sp,16]
	.cfi_restore 20
	.cfi_restore 19
.LVL155:
	ldp	x29, x30, [sp], 48
	.cfi_restore 30
	.cfi_restore 29
	.cfi_def_cfa 31, 0
	ret
.LVL156:
.L217:
	.cfi_restore_state
.LBB228:
	.loc 1 421 0
	mov	x0, x3
	ldr	x3, [x4]
	mov	x2, x1
.LVL157:
.L212:
.LBE228:
.LBB229:
.LBB230:
	.loc 4 107 0
	ldr	x5, [x2,3720]
	.loc 4 108 0
	mov	x4, 256
.LVL158:
.LBB231:
.LBB232:
	.loc 4 89 0
	str	x5, [x3,8]
.LVL159:
.LBE232:
.LBE231:
	.loc 4 108 0
	movk	x4, 0xdead, lsl 48
	.loc 4 109 0
	mov	x1, 512
.LBB237:
.LBB236:
.LBB233:
.LBB234:
.LBB235:
	.loc 2 276 0
	str	x3, [x5]
.LBE235:
.LBE234:
.LBE233:
.LBE236:
.LBE237:
	.loc 4 109 0
	movk	x1, 0xdead, lsl 48
	.loc 4 108 0
	str	x4, [x0,11904]
.LBE230:
.LBE229:
.LBB239:
.LBB226:
	.loc 3 347 0
	add	x0, x21, :lo12:.LANCHOR0
.LBE226:
.LBE239:
.LBB240:
.LBB238:
	.loc 4 109 0
	str	x1, [x2,3720]
.LBE238:
.LBE240:
.LBB241:
.LBB227:
	.loc 3 347 0
	bl	_raw_spin_unlock
.LVL160:
.LBE227:
.LBE241:
	.loc 1 429 0
	ldr	x21, [sp,32]
	.cfi_restore 21
	ldp	x19, x20, [sp,16]
	.cfi_restore 19
	.cfi_restore 20
.LVL161:
	ldp	x29, x30, [sp], 48
	.cfi_restore 29
	.cfi_restore 30
	.cfi_def_cfa 31, 0
	ret
	.cfi_endproc
.LFE2704:
	.size	hisi_blk_dump_unregister_queue, .-hisi_blk_dump_unregister_queue
	.section	.init.text,"ax",%progbits
	.align	2
	.global	hisi_blk_dump_init
	.type	hisi_blk_dump_init, %function
hisi_blk_dump_init:
.LFB2705:
	.loc 1 438 0
	.cfi_startproc
	stp	x29, x30, [sp, -16]!
	.cfi_def_cfa_offset 16
	.cfi_offset 29, -16
	.cfi_offset 30, -8
	.loc 1 439 0
	adrp	x1, .LANCHOR0
	adrp	x0, panic_notifier_list
	add	x1, x1, :lo12:.LANCHOR0
	.loc 1 438 0
	add	x29, sp, 0
	.cfi_def_cfa_register 29
	.loc 1 439 0
	add	x1, x1, 40
	add	x0, x0, :lo12:panic_notifier_list
	.loc 1 438 0
	.loc 1 439 0
	bl	atomic_notifier_chain_register
.LVL162:
	.loc 1 440 0
	ldp	x29, x30, [sp], 16
	.cfi_restore 30
	.cfi_restore 29
	.cfi_def_cfa 31, 0
	ret
	.cfi_endproc
.LFE2705:
	.size	hisi_blk_dump_init, .-hisi_blk_dump_init
	.section	__ksymtab_strings,"a",%progbits
	.type	__kstrtab_blk_queue_dump_register, %object
	.size	__kstrtab_blk_queue_dump_register, 24
__kstrtab_blk_queue_dump_register:
	.string	"blk_queue_dump_register"
	.type	__kstrtab_blk_mq_tagset_dump_register, %object
	.size	__kstrtab_blk_mq_tagset_dump_register, 28
__kstrtab_blk_mq_tagset_dump_register:
	.string	"blk_mq_tagset_dump_register"
	.section	.rodata
	.align	3
.LANCHOR1 = . + 0
	.type	CSWTCH.42, %object
	.size	CSWTCH.42, 24
CSWTCH.42:
	.xword	.LC32
	.xword	.LC33
	.xword	.LC34
	.type	__func__.33340, %object
	.size	__func__.33340, 27
__func__.33340:
	.string	"hisi_blk_dump_panic_notify"
	.section	___ksymtab+blk_queue_dump_register,"a",%progbits
	.align	3
	.type	__ksymtab_blk_queue_dump_register, %object
	.size	__ksymtab_blk_queue_dump_register, 16
__ksymtab_blk_queue_dump_register:
	.xword	blk_queue_dump_register
	.xword	__kstrtab_blk_queue_dump_register
	.data
	.align	3
.LANCHOR0 = . + 0
	.type	dump_list_lock, %object
	.size	dump_list_lock, 24
dump_list_lock:
	.hword	0
	.hword	0
	.word	-559067475
	.word	-1
	.zero	4
	.xword	-1
	.type	dump_list, %object
	.size	dump_list, 16
dump_list:
	.xword	dump_list
	.xword	dump_list
	.type	hisi_blk_dump_nb, %object
	.size	hisi_blk_dump_nb, 24
hisi_blk_dump_nb:
	.xword	hisi_blk_dump_panic_notify
	.zero	8
	.word	0
	.zero	4
	.section	___kcrctab+blk_queue_dump_register,"a",%progbits
	.align	3
	.type	__kcrctab_blk_queue_dump_register, %object
	.size	__kcrctab_blk_queue_dump_register, 8
__kcrctab_blk_queue_dump_register:
	.xword	__crc_blk_queue_dump_register
	.section	.rodata.str1.8,"aMS",%progbits,1
	.align	3
.LC0:
	.string	"TYPE_ERR"
	.zero	7
.LC1:
	.string	"<%s:%llu> "
	.zero	5
.LC2:
	.string	"\0013[BLK-IO]<%s> rq: 0x%llx type:%s len:%d %s requeue_reason = %d rq_hoq_flag = %llx rq_cp_flag = %llx dispatch pid: %d <%s> \n"
	.zero	3
.LC3:
	.string	"\0013[BLK-IO]<%s> rq: 0x%llx, type:%s len:%d %s requeue_reason = %d rq_hoq_flag = %llx rq_cp_flag = %llx \n"
.LC4:
	.string	"\0013[BLK-IO]<%s> %s \n"
	.zero	4
.LC5:
	.string	"\0013[BLK-IO]<%s> bio: 0x%llx type:%s len:%d dispatch pid: %d <%s>, \n"
	.zero	5
.LC6:
	.string	"\0013[BLK-IO]<%s> bio: 0x%llx, type:%s len:%d\n"
	.zero	4
.LC7:
	.string	"\0013[BLK-IO]<%s> %s,current: %llu\n"
	.zero	7
.LC8:
	.string	"enable"
	.zero	1
.LC9:
	.string	"disable"
.LC10:
	.string	"Queue Status:\n"
	.zero	1
.LC11:
	.string	"\0013[BLK-IO]%s"
	.zero	3
.LC12:
	.string	"IO Latency Waring: enable    Waring Threshold(ms): %u\n"
	.zero	1
.LC13:
	.string	"IO Latency Waring: disable \n"
	.zero	3
.LC14:
	.string	"IO Latency Statistic: %s \n"
	.zero	5
.LC15:
	.string	"Flush Reduce: %s \n"
	.zero	5
.LC16:
	.string	"none"
	.zero	3
.LC17:
	.string	"include"
.LC18:
	.string	"\0013[BLK-IO]<%s> block device: %s, partition table: %s, read inflight = %d write inflight = %d\n"
	.zero	2
.LC19:
	.string	"LLD Status:\n"
	.zero	3
.LC20:
	.string	"Panic Dump: %s \n"
	.zero	7
.LC21:
	.string	"IO Busy/Idle Notifier: %s   "
	.zero	3
.LC22:
	.string	"Current Status: BUSY  "
	.zero	1
.LC23:
	.string	"Current Status: IDLE   "
.LC24:
	.string	"IO Count: %d \n"
	.zero	1
.LC25:
	.string	"Inline Crypto: %s \n"
	.zero	4
.LC26:
	.string	"HISI MQ IO Scheduler \n"
	.zero	1
.LC27:
	.string	"Default IO Scheduler \n"
	.zero	1
.LC28:
	.string	"IO Scheduler: "
	.zero	1
.LC29:
	.string	"dump"
	.zero	3
.LC30:
	.string	"\0013[BLK-IO][%s]+ current = %llu \n"
	.zero	7
.LC31:
	.string	"\0013[BLK-IO][%s]-\n"
	.zero	7
.LC32:
	.string	"TYPE_FS"
.LC33:
	.string	"TYPE_BLOCK_PC"
	.zero	2
.LC34:
	.string	"TYPE_DRV_PRIV"
	.section	___ksymtab+blk_mq_tagset_dump_register,"a",%progbits
	.align	3
	.type	__ksymtab_blk_mq_tagset_dump_register, %object
	.size	__ksymtab_blk_mq_tagset_dump_register, 16
__ksymtab_blk_mq_tagset_dump_register:
	.xword	blk_mq_tagset_dump_register
	.xword	__kstrtab_blk_mq_tagset_dump_register
	.section	___kcrctab+blk_mq_tagset_dump_register,"a",%progbits
	.align	3
	.type	__kcrctab_blk_mq_tagset_dump_register, %object
	.size	__kcrctab_blk_mq_tagset_dump_register, 8
__kcrctab_blk_mq_tagset_dump_register:
	.xword	__crc_blk_mq_tagset_dump_register
	.weak	__crc_blk_mq_tagset_dump_register
	.weak	__crc_blk_queue_dump_register
	.text
.Letext0:
	.file 5 "/mnt/disk/jenkins/ci/workspace/chipset_TONY_patch_01/opensource/component_code/vendor/huawei/extra/build/build_script/kirin_kernel_release/kernel/include/uapi/asm-generic/int-ll64.h"
	.file 6 "/mnt/disk/jenkins/ci/workspace/chipset_TONY_patch_01/opensource/component_code/vendor/huawei/extra/build/build_script/kirin_kernel_release/kernel/include/asm-generic/int-ll64.h"
	.file 7 "/mnt/disk/jenkins/ci/workspace/chipset_TONY_patch_01/opensource/component_code/vendor/huawei/extra/build/build_script/kirin_kernel_release/kernel/include/uapi/asm-generic/posix_types.h"
	.file 8 "/mnt/disk/jenkins/ci/workspace/chipset_TONY_patch_01/opensource/component_code/vendor/huawei/extra/build/build_script/kirin_kernel_release/kernel/include/linux/export.h"
	.file 9 "/mnt/disk/jenkins/ci/workspace/chipset_TONY_patch_01/opensource/component_code/vendor/huawei/extra/build/build_script/kirin_kernel_release/kernel/include/linux/types.h"
	.file 10 "/mnt/disk/jenkins/ci/workspace/chipset_TONY_patch_01/opensource/component_code/vendor/huawei/extra/build/build_script/kirin_kernel_release/kernel/include/linux/capability.h"
	.file 11 "/mnt/disk/jenkins/ci/workspace/chipset_TONY_patch_01/opensource/component_code/vendor/huawei/extra/build/build_script/kirin_kernel_release/kernel/include/asm-generic/bug.h"
	.file 12 "/mnt/disk/jenkins/ci/workspace/chipset_TONY_patch_01/opensource/component_code/vendor/huawei/extra/build/build_script/kirin_kernel_release/kernel/include/linux/restart_block.h"
	.file 13 "/mnt/disk/jenkins/ci/workspace/chipset_TONY_patch_01/opensource/component_code/vendor/huawei/extra/build/build_script/kirin_kernel_release/kernel/include/uapi/linux/time.h"
	.file 14 "/mnt/disk/jenkins/ci/workspace/chipset_TONY_patch_01/opensource/component_code/vendor/huawei/extra/build/build_script/kirin_kernel_release/kernel/arch/arm64/include/asm/compat.h"
	.file 15 "/mnt/disk/jenkins/ci/workspace/chipset_TONY_patch_01/opensource/component_code/vendor/huawei/extra/build/build_script/kirin_kernel_release/kernel/arch/arm64/include/asm/thread_info.h"
	.file 16 "/mnt/disk/jenkins/ci/workspace/chipset_TONY_patch_01/opensource/component_code/vendor/huawei/extra/build/build_script/kirin_kernel_release/kernel/arch/arm64/include/uapi/asm/ptrace.h"
	.file 17 "/mnt/disk/jenkins/ci/workspace/chipset_TONY_patch_01/opensource/component_code/vendor/huawei/extra/build/build_script/kirin_kernel_release/kernel/arch/arm64/include/asm/spinlock_types.h"
	.file 18 "/mnt/disk/jenkins/ci/workspace/chipset_TONY_patch_01/opensource/component_code/vendor/huawei/extra/build/build_script/kirin_kernel_release/kernel/include/linux/spinlock_types.h"
	.file 19 "/mnt/disk/jenkins/ci/workspace/chipset_TONY_patch_01/opensource/component_code/vendor/huawei/extra/build/build_script/kirin_kernel_release/kernel/include/linux/rwlock_types.h"
	.file 20 "/mnt/disk/jenkins/ci/workspace/chipset_TONY_patch_01/opensource/component_code/vendor/huawei/extra/build/build_script/kirin_kernel_release/kernel/arch/arm64/include/asm/fpsimd.h"
	.file 21 "/mnt/disk/jenkins/ci/workspace/chipset_TONY_patch_01/opensource/component_code/vendor/huawei/extra/build/build_script/kirin_kernel_release/kernel/include/linux/jump_label.h"
	.file 22 "/mnt/disk/jenkins/ci/workspace/chipset_TONY_patch_01/opensource/component_code/vendor/huawei/extra/build/build_script/kirin_kernel_release/kernel/include/asm-generic/atomic-long.h"
	.file 23 "/mnt/disk/jenkins/ci/workspace/chipset_TONY_patch_01/opensource/component_code/vendor/huawei/extra/build/build_script/kirin_kernel_release/kernel/arch/arm64/include/asm/processor.h"
	.file 24 "/mnt/disk/jenkins/ci/workspace/chipset_TONY_patch_01/opensource/component_code/vendor/huawei/extra/build/build_script/kirin_kernel_release/kernel/include/linux/seqlock.h"
	.file 25 "/mnt/disk/jenkins/ci/workspace/chipset_TONY_patch_01/opensource/component_code/vendor/huawei/extra/build/build_script/kirin_kernel_release/kernel/include/linux/time64.h"
	.file 26 "/mnt/disk/jenkins/ci/workspace/chipset_TONY_patch_01/opensource/component_code/vendor/huawei/extra/build/build_script/kirin_kernel_release/kernel/include/linux/plist.h"
	.file 27 "/mnt/disk/jenkins/ci/workspace/chipset_TONY_patch_01/opensource/component_code/vendor/huawei/extra/build/build_script/kirin_kernel_release/kernel/include/linux/cpumask.h"
	.file 28 "/mnt/disk/jenkins/ci/workspace/chipset_TONY_patch_01/opensource/component_code/vendor/huawei/extra/build/build_script/kirin_kernel_release/kernel/include/linux/wait.h"
	.file 29 "/mnt/disk/jenkins/ci/workspace/chipset_TONY_patch_01/opensource/component_code/vendor/huawei/extra/build/build_script/kirin_kernel_release/kernel/include/linux/completion.h"
	.file 30 "/mnt/disk/jenkins/ci/workspace/chipset_TONY_patch_01/opensource/component_code/vendor/huawei/extra/build/build_script/kirin_kernel_release/kernel/include/linux/ktime.h"
	.file 31 "/mnt/disk/jenkins/ci/workspace/chipset_TONY_patch_01/opensource/component_code/vendor/huawei/extra/build/build_script/kirin_kernel_release/kernel/include/linux/rbtree.h"
	.file 32 "/mnt/disk/jenkins/ci/workspace/chipset_TONY_patch_01/opensource/component_code/vendor/huawei/extra/build/build_script/kirin_kernel_release/kernel/include/linux/nodemask.h"
	.file 33 "/mnt/disk/jenkins/ci/workspace/chipset_TONY_patch_01/opensource/component_code/vendor/huawei/extra/build/build_script/kirin_kernel_release/kernel/include/linux/osq_lock.h"
	.file 34 "/mnt/disk/jenkins/ci/workspace/chipset_TONY_patch_01/opensource/component_code/vendor/huawei/extra/build/build_script/kirin_kernel_release/kernel/include/linux/rwsem.h"
	.file 35 "/mnt/disk/jenkins/ci/workspace/chipset_TONY_patch_01/opensource/component_code/vendor/huawei/extra/build/build_script/kirin_kernel_release/kernel/include/linux/sched.h"
	.file 36 "/mnt/disk/jenkins/ci/workspace/chipset_TONY_patch_01/opensource/component_code/vendor/huawei/extra/build/build_script/kirin_kernel_release/kernel/include/linux/mm_types.h"
	.file 37 "/mnt/disk/jenkins/ci/workspace/chipset_TONY_patch_01/opensource/component_code/vendor/huawei/extra/build/build_script/kirin_kernel_release/kernel/include/linux/lockdep.h"
	.file 38 "/mnt/disk/jenkins/ci/workspace/chipset_TONY_patch_01/opensource/component_code/vendor/huawei/extra/build/build_script/kirin_kernel_release/kernel/include/linux/uprobes.h"
	.file 39 "/mnt/disk/jenkins/ci/workspace/chipset_TONY_patch_01/opensource/component_code/vendor/huawei/extra/build/build_script/kirin_kernel_release/kernel/include/linux/timer.h"
	.file 40 "/mnt/disk/jenkins/ci/workspace/chipset_TONY_patch_01/opensource/component_code/vendor/huawei/extra/build/build_script/kirin_kernel_release/kernel/include/linux/uidgid.h"
	.file 41 "/mnt/disk/jenkins/ci/workspace/chipset_TONY_patch_01/opensource/component_code/vendor/huawei/extra/build/build_script/kirin_kernel_release/kernel/include/linux/workqueue.h"
	.file 42 "/mnt/disk/jenkins/ci/workspace/chipset_TONY_patch_01/opensource/component_code/vendor/huawei/extra/build/build_script/kirin_kernel_release/kernel/arch/arm64/include/asm/pgtable-types.h"
	.file 43 "/mnt/disk/jenkins/ci/workspace/chipset_TONY_patch_01/opensource/component_code/vendor/huawei/extra/build/build_script/kirin_kernel_release/kernel/arch/arm64/include/asm/page.h"
	.file 44 "/mnt/disk/jenkins/ci/workspace/chipset_TONY_patch_01/opensource/component_code/vendor/huawei/extra/build/build_script/kirin_kernel_release/kernel/include/linux/pfn.h"
	.file 45 "/mnt/disk/jenkins/ci/workspace/chipset_TONY_patch_01/opensource/component_code/vendor/huawei/extra/build/build_script/kirin_kernel_release/kernel/include/linux/llist.h"
	.file 46 "/mnt/disk/jenkins/ci/workspace/chipset_TONY_patch_01/opensource/component_code/vendor/huawei/extra/build/build_script/kirin_kernel_release/kernel/include/linux/smp.h"
	.file 47 "/mnt/disk/jenkins/ci/workspace/chipset_TONY_patch_01/opensource/component_code/vendor/huawei/extra/build/build_script/kirin_kernel_release/kernel/arch/arm64/include/asm/smp.h"
	.file 48 "/mnt/disk/jenkins/ci/workspace/chipset_TONY_patch_01/opensource/component_code/vendor/huawei/extra/build/build_script/kirin_kernel_release/kernel/arch/arm64/include/asm/mmu.h"
	.file 49 "/mnt/disk/jenkins/ci/workspace/chipset_TONY_patch_01/opensource/component_code/vendor/huawei/extra/build/build_script/kirin_kernel_release/kernel/include/linux/fs.h"
	.file 50 "/mnt/disk/jenkins/ci/workspace/chipset_TONY_patch_01/opensource/component_code/vendor/huawei/extra/build/build_script/kirin_kernel_release/kernel/include/linux/mm.h"
	.file 51 "/mnt/disk/jenkins/ci/workspace/chipset_TONY_patch_01/opensource/component_code/vendor/huawei/extra/build/build_script/kirin_kernel_release/kernel/include/asm-generic/cputime_jiffies.h"
	.file 52 "/mnt/disk/jenkins/ci/workspace/chipset_TONY_patch_01/opensource/component_code/vendor/huawei/extra/build/build_script/kirin_kernel_release/kernel/include/uapi/asm-generic/signal.h"
	.file 53 "/mnt/disk/jenkins/ci/workspace/chipset_TONY_patch_01/opensource/component_code/vendor/huawei/extra/build/build_script/kirin_kernel_release/kernel/include/uapi/asm-generic/signal-defs.h"
	.file 54 "/mnt/disk/jenkins/ci/workspace/chipset_TONY_patch_01/opensource/component_code/vendor/huawei/extra/build/build_script/kirin_kernel_release/kernel/include/uapi/asm-generic/siginfo.h"
	.file 55 "/mnt/disk/jenkins/ci/workspace/chipset_TONY_patch_01/opensource/component_code/vendor/huawei/extra/build/build_script/kirin_kernel_release/kernel/include/linux/signal.h"
	.file 56 "/mnt/disk/jenkins/ci/workspace/chipset_TONY_patch_01/opensource/component_code/vendor/huawei/extra/build/build_script/kirin_kernel_release/kernel/include/linux/pid.h"
	.file 57 "/mnt/disk/jenkins/ci/workspace/chipset_TONY_patch_01/opensource/component_code/vendor/huawei/extra/build/build_script/kirin_kernel_release/kernel/include/linux/mmzone.h"
	.file 58 "/mnt/disk/jenkins/ci/workspace/chipset_TONY_patch_01/opensource/component_code/vendor/huawei/extra/build/build_script/kirin_kernel_release/kernel/include/linux/mutex.h"
	.file 59 "/mnt/disk/jenkins/ci/workspace/chipset_TONY_patch_01/opensource/component_code/vendor/huawei/extra/build/build_script/kirin_kernel_release/kernel/include/linux/notifier.h"
	.file 60 "/mnt/disk/jenkins/ci/workspace/chipset_TONY_patch_01/opensource/component_code/vendor/huawei/extra/build/build_script/kirin_kernel_release/kernel/include/linux/seccomp.h"
	.file 61 "/mnt/disk/jenkins/ci/workspace/chipset_TONY_patch_01/opensource/component_code/vendor/huawei/extra/build/build_script/kirin_kernel_release/kernel/include/uapi/linux/resource.h"
	.file 62 "/mnt/disk/jenkins/ci/workspace/chipset_TONY_patch_01/opensource/component_code/vendor/huawei/extra/build/build_script/kirin_kernel_release/kernel/include/linux/timerqueue.h"
	.file 63 "/mnt/disk/jenkins/ci/workspace/chipset_TONY_patch_01/opensource/component_code/vendor/huawei/extra/build/build_script/kirin_kernel_release/kernel/include/linux/hrtimer.h"
	.file 64 "/mnt/disk/jenkins/ci/workspace/chipset_TONY_patch_01/opensource/component_code/vendor/huawei/extra/build/build_script/kirin_kernel_release/kernel/include/linux/task_io_accounting.h"
	.file 65 "/mnt/disk/jenkins/ci/workspace/chipset_TONY_patch_01/opensource/component_code/vendor/huawei/extra/build/build_script/kirin_kernel_release/kernel/include/linux/assoc_array.h"
	.file 66 "/mnt/disk/jenkins/ci/workspace/chipset_TONY_patch_01/opensource/component_code/vendor/huawei/extra/build/build_script/kirin_kernel_release/kernel/include/linux/key.h"
	.file 67 "/mnt/disk/jenkins/ci/workspace/chipset_TONY_patch_01/opensource/component_code/vendor/huawei/extra/build/build_script/kirin_kernel_release/kernel/include/linux/cred.h"
	.file 68 "/mnt/disk/jenkins/ci/workspace/chipset_TONY_patch_01/opensource/component_code/vendor/huawei/extra/build/build_script/kirin_kernel_release/kernel/include/linux/idr.h"
	.file 69 "/mnt/disk/jenkins/ci/workspace/chipset_TONY_patch_01/opensource/component_code/vendor/huawei/extra/build/build_script/kirin_kernel_release/kernel/include/linux/percpu-refcount.h"
	.file 70 "/mnt/disk/jenkins/ci/workspace/chipset_TONY_patch_01/opensource/component_code/vendor/huawei/extra/build/build_script/kirin_kernel_release/kernel/include/linux/rcu_sync.h"
	.file 71 "/mnt/disk/jenkins/ci/workspace/chipset_TONY_patch_01/opensource/component_code/vendor/huawei/extra/build/build_script/kirin_kernel_release/kernel/include/linux/percpu-rwsem.h"
	.file 72 "/mnt/disk/jenkins/ci/workspace/chipset_TONY_patch_01/opensource/component_code/vendor/huawei/extra/build/build_script/kirin_kernel_release/kernel/include/linux/bpf-cgroup.h"
	.file 73 "/mnt/disk/jenkins/ci/workspace/chipset_TONY_patch_01/opensource/component_code/vendor/huawei/extra/build/build_script/kirin_kernel_release/kernel/include/linux/cgroup-defs.h"
	.file 74 "/mnt/disk/jenkins/ci/workspace/chipset_TONY_patch_01/opensource/component_code/vendor/huawei/extra/build/build_script/kirin_kernel_release/kernel/include/linux/kernfs.h"
	.file 75 "/mnt/disk/jenkins/ci/workspace/chipset_TONY_patch_01/opensource/component_code/vendor/huawei/extra/build/build_script/kirin_kernel_release/kernel/include/linux/seq_file.h"
	.file 76 "/mnt/disk/jenkins/ci/workspace/chipset_TONY_patch_01/opensource/component_code/vendor/huawei/extra/build/build_script/kirin_kernel_release/kernel/include/linux/bio.h"
	.file 77 "/mnt/disk/jenkins/ci/workspace/chipset_TONY_patch_01/opensource/component_code/vendor/huawei/extra/build/build_script/kirin_kernel_release/kernel/include/linux/blkdev.h"
	.file 78 "/mnt/disk/jenkins/ci/workspace/chipset_TONY_patch_01/opensource/component_code/vendor/huawei/extra/build/build_script/kirin_kernel_release/kernel/include/linux/backing-dev-defs.h"
	.file 79 "/mnt/disk/jenkins/ci/workspace/chipset_TONY_patch_01/opensource/component_code/vendor/huawei/extra/build/build_script/kirin_kernel_release/kernel/include/linux/iocontext.h"
	.file 80 "/mnt/disk/jenkins/ci/workspace/chipset_TONY_patch_01/opensource/component_code/vendor/huawei/extra/build/build_script/kirin_kernel_release/kernel/include/linux/kobject_ns.h"
	.file 81 "/mnt/disk/jenkins/ci/workspace/chipset_TONY_patch_01/opensource/component_code/vendor/huawei/extra/build/build_script/kirin_kernel_release/kernel/include/linux/stat.h"
	.file 82 "/mnt/disk/jenkins/ci/workspace/chipset_TONY_patch_01/opensource/component_code/vendor/huawei/extra/build/build_script/kirin_kernel_release/kernel/include/linux/sysfs.h"
	.file 83 "/mnt/disk/jenkins/ci/workspace/chipset_TONY_patch_01/opensource/component_code/vendor/huawei/extra/build/build_script/kirin_kernel_release/kernel/include/linux/kobject.h"
	.file 84 "/mnt/disk/jenkins/ci/workspace/chipset_TONY_patch_01/opensource/component_code/vendor/huawei/extra/build/build_script/kirin_kernel_release/kernel/include/linux/kref.h"
	.file 85 "/mnt/disk/jenkins/ci/workspace/chipset_TONY_patch_01/opensource/component_code/vendor/huawei/extra/build/build_script/kirin_kernel_release/kernel/include/linux/klist.h"
	.file 86 "/mnt/disk/jenkins/ci/workspace/chipset_TONY_patch_01/opensource/component_code/vendor/huawei/extra/build/build_script/kirin_kernel_release/kernel/include/linux/list_bl.h"
	.file 87 "/mnt/disk/jenkins/ci/workspace/chipset_TONY_patch_01/opensource/component_code/vendor/huawei/extra/build/build_script/kirin_kernel_release/kernel/include/linux/lockref.h"
	.file 88 "/mnt/disk/jenkins/ci/workspace/chipset_TONY_patch_01/opensource/component_code/vendor/huawei/extra/build/build_script/kirin_kernel_release/kernel/include/linux/dcache.h"
	.file 89 "/mnt/disk/jenkins/ci/workspace/chipset_TONY_patch_01/opensource/component_code/vendor/huawei/extra/build/build_script/kirin_kernel_release/kernel/include/linux/path.h"
	.file 90 "/mnt/disk/jenkins/ci/workspace/chipset_TONY_patch_01/opensource/component_code/vendor/huawei/extra/build/build_script/kirin_kernel_release/kernel/include/linux/shrinker.h"
	.file 91 "/mnt/disk/jenkins/ci/workspace/chipset_TONY_patch_01/opensource/component_code/vendor/huawei/extra/build/build_script/kirin_kernel_release/kernel/include/linux/list_lru.h"
	.file 92 "/mnt/disk/jenkins/ci/workspace/chipset_TONY_patch_01/opensource/component_code/vendor/huawei/extra/build/build_script/kirin_kernel_release/kernel/include/linux/radix-tree.h"
	.file 93 "/mnt/disk/jenkins/ci/workspace/chipset_TONY_patch_01/opensource/component_code/vendor/huawei/extra/build/build_script/kirin_kernel_release/kernel/include/uapi/linux/fiemap.h"
	.file 94 "/mnt/disk/jenkins/ci/workspace/chipset_TONY_patch_01/opensource/component_code/vendor/huawei/extra/build/build_script/kirin_kernel_release/kernel/include/linux/migrate_mode.h"
	.file 95 "/mnt/disk/jenkins/ci/workspace/chipset_TONY_patch_01/opensource/component_code/vendor/huawei/extra/build/build_script/kirin_kernel_release/kernel/include/linux/bvec.h"
	.file 96 "/mnt/disk/jenkins/ci/workspace/chipset_TONY_patch_01/opensource/component_code/vendor/huawei/extra/build/build_script/kirin_kernel_release/kernel/include/linux/blk_types.h"
	.file 97 "/mnt/disk/jenkins/ci/workspace/chipset_TONY_patch_01/opensource/component_code/vendor/huawei/extra/build/build_script/kirin_kernel_release/kernel/include/linux/delayed_call.h"
	.file 98 "/mnt/disk/jenkins/ci/workspace/chipset_TONY_patch_01/opensource/component_code/vendor/huawei/extra/build/build_script/kirin_kernel_release/kernel/include/linux/percpu_counter.h"
	.file 99 "/mnt/disk/jenkins/ci/workspace/chipset_TONY_patch_01/opensource/component_code/vendor/huawei/extra/build/build_script/kirin_kernel_release/kernel/include/linux/quota.h"
	.file 100 "/mnt/disk/jenkins/ci/workspace/chipset_TONY_patch_01/opensource/component_code/vendor/huawei/extra/build/build_script/kirin_kernel_release/kernel/include/linux/projid.h"
	.file 101 "/mnt/disk/jenkins/ci/workspace/chipset_TONY_patch_01/opensource/component_code/vendor/huawei/extra/build/build_script/kirin_kernel_release/kernel/include/linux/module.h"
	.file 102 "/mnt/disk/jenkins/ci/workspace/chipset_TONY_patch_01/opensource/component_code/vendor/huawei/extra/build/build_script/kirin_kernel_release/kernel/include/linux/genhd.h"
	.file 103 "/mnt/disk/jenkins/ci/workspace/chipset_TONY_patch_01/opensource/component_code/vendor/huawei/extra/build/build_script/kirin_kernel_release/kernel/include/linux/nfs_fs_i.h"
	.file 104 "/mnt/disk/jenkins/ci/workspace/chipset_TONY_patch_01/opensource/component_code/vendor/huawei/extra/build/build_script/kirin_kernel_release/kernel/include/linux/pinctrl/devinfo.h"
	.file 105 "/mnt/disk/jenkins/ci/workspace/chipset_TONY_patch_01/opensource/component_code/vendor/huawei/extra/build/build_script/kirin_kernel_release/kernel/include/linux/pm.h"
	.file 106 "/mnt/disk/jenkins/ci/workspace/chipset_TONY_patch_01/opensource/component_code/vendor/huawei/extra/build/build_script/kirin_kernel_release/kernel/include/linux/device.h"
	.file 107 "/mnt/disk/jenkins/ci/workspace/chipset_TONY_patch_01/opensource/component_code/vendor/huawei/extra/build/build_script/kirin_kernel_release/kernel/include/linux/pm_wakeup.h"
	.file 108 "/mnt/disk/jenkins/ci/workspace/chipset_TONY_patch_01/opensource/component_code/vendor/huawei/extra/build/build_script/kirin_kernel_release/kernel/arch/arm64/include/asm/device.h"
	.file 109 "/mnt/disk/jenkins/ci/workspace/chipset_TONY_patch_01/opensource/component_code/vendor/huawei/extra/build/build_script/kirin_kernel_release/kernel/include/linux/tracepoint-defs.h"
	.file 110 "/mnt/disk/jenkins/ci/workspace/chipset_TONY_patch_01/opensource/component_code/vendor/huawei/extra/build/build_script/kirin_kernel_release/kernel/include/linux/vmstat.h"
	.file 111 "/mnt/disk/jenkins/ci/workspace/chipset_TONY_patch_01/opensource/component_code/vendor/huawei/extra/build/build_script/kirin_kernel_release/kernel/arch/arm64/include/asm/uaccess.h"
	.file 112 "/mnt/disk/jenkins/ci/workspace/chipset_TONY_patch_01/opensource/component_code/vendor/huawei/extra/build/build_script/kirin_kernel_release/kernel/include/linux/flex_proportions.h"
	.file 113 "/mnt/disk/jenkins/ci/workspace/chipset_TONY_patch_01/opensource/component_code/vendor/huawei/extra/build/build_script/kirin_kernel_release/kernel/include/linux/mempool.h"
	.file 114 "/mnt/disk/jenkins/ci/workspace/chipset_TONY_patch_01/opensource/component_code/vendor/huawei/extra/build/build_script/kirin_kernel_release/kernel/include/linux/bsg.h"
	.file 115 "/mnt/disk/jenkins/ci/workspace/chipset_TONY_patch_01/opensource/component_code/vendor/huawei/extra/build/build_script/kirin_kernel_release/kernel/include/linux/wbt.h"
	.file 116 "/mnt/disk/jenkins/ci/workspace/chipset_TONY_patch_01/opensource/component_code/vendor/huawei/extra/build/build_script/kirin_kernel_release/kernel/block/blk-mq.h"
	.file 117 "/mnt/disk/jenkins/ci/workspace/chipset_TONY_patch_01/opensource/component_code/vendor/huawei/extra/build/build_script/kirin_kernel_release/kernel/include/linux/elevator.h"
	.file 118 "/mnt/disk/jenkins/ci/workspace/chipset_TONY_patch_01/opensource/component_code/vendor/huawei/extra/build/build_script/kirin_kernel_release/kernel/include/linux/blk-mq.h"
	.file 119 "/mnt/disk/jenkins/ci/workspace/chipset_TONY_patch_01/opensource/component_code/vendor/huawei/extra/build/build_script/kirin_kernel_release/kernel/block/hisi-blk.h"
	.file 120 "/mnt/disk/jenkins/ci/workspace/chipset_TONY_patch_01/opensource/component_code/vendor/huawei/extra/build/build_script/kirin_kernel_release/kernel/block/blk.h"
	.file 121 "/mnt/disk/jenkins/ci/workspace/chipset_TONY_patch_01/opensource/component_code/vendor/huawei/extra/build/build_script/kirin_kernel_release/kernel/include/linux/sbitmap.h"
	.file 122 "/mnt/disk/jenkins/ci/workspace/chipset_TONY_patch_01/opensource/component_code/vendor/huawei/extra/build/build_script/kirin_kernel_release/kernel/block/blk-mq-tag.h"
	.file 123 "/mnt/disk/jenkins/ci/workspace/chipset_TONY_patch_01/opensource/component_code/vendor/huawei/extra/build/build_script/kirin_kernel_release/kernel/include/linux/stddef.h"
	.file 124 "/mnt/disk/jenkins/ci/workspace/chipset_TONY_patch_01/opensource/component_code/vendor/huawei/extra/build/build_script/kirin_kernel_release/kernel/include/uapi/linux/elf.h"
	.file 125 "/mnt/disk/jenkins/ci/workspace/chipset_TONY_patch_01/opensource/component_code/vendor/huawei/extra/build/build_script/kirin_kernel_release/kernel/include/linux/moduleparam.h"
	.file 126 "/mnt/disk/jenkins/ci/workspace/chipset_TONY_patch_01/opensource/component_code/vendor/huawei/extra/build/build_script/kirin_kernel_release/kernel/include/linux/rbtree_latch.h"
	.file 127 "/mnt/disk/jenkins/ci/workspace/chipset_TONY_patch_01/opensource/component_code/vendor/huawei/extra/build/build_script/kirin_kernel_release/kernel/arch/arm64/include/asm/module.h"
	.file 128 "/mnt/disk/jenkins/ci/workspace/chipset_TONY_patch_01/opensource/component_code/vendor/huawei/extra/build/build_script/kirin_kernel_release/kernel/arch/arm64/include/asm/cachetype.h"
	.file 129 "/mnt/disk/jenkins/ci/workspace/chipset_TONY_patch_01/opensource/component_code/vendor/huawei/extra/build/build_script/kirin_kernel_release/kernel/include/linux/printk.h"
	.file 130 "/mnt/disk/jenkins/ci/workspace/chipset_TONY_patch_01/opensource/component_code/vendor/huawei/extra/build/build_script/kirin_kernel_release/kernel/include/linux/kernel.h"
	.file 131 "/mnt/disk/jenkins/ci/workspace/chipset_TONY_patch_01/opensource/component_code/vendor/huawei/extra/build/build_script/kirin_kernel_release/kernel/arch/arm64/include/asm/stack_pointer.h"
	.file 132 "/mnt/disk/jenkins/ci/workspace/chipset_TONY_patch_01/opensource/component_code/vendor/huawei/extra/build/build_script/kirin_kernel_release/kernel/arch/arm64/include/asm/hwcap.h"
	.file 133 "/mnt/disk/jenkins/ci/workspace/chipset_TONY_patch_01/opensource/component_code/vendor/huawei/extra/build/build_script/kirin_kernel_release/kernel/arch/arm64/include/asm/cpufeature.h"
	.file 134 "/mnt/disk/jenkins/ci/workspace/chipset_TONY_patch_01/opensource/component_code/vendor/huawei/extra/build/build_script/kirin_kernel_release/kernel/arch/arm64/include/asm/virt.h"
	.file 135 "/mnt/disk/jenkins/ci/workspace/chipset_TONY_patch_01/opensource/component_code/vendor/huawei/extra/build/build_script/kirin_kernel_release/kernel/arch/arm64/include/asm/arch_timer.h"
	.file 136 "/mnt/disk/jenkins/ci/workspace/chipset_TONY_patch_01/opensource/component_code/vendor/huawei/extra/build/build_script/kirin_kernel_release/kernel/include/linux/jiffies.h"
	.file 137 "/mnt/disk/jenkins/ci/workspace/chipset_TONY_patch_01/opensource/component_code/vendor/huawei/extra/build/build_script/kirin_kernel_release/kernel/include/linux/highuid.h"
	.file 138 "/mnt/disk/jenkins/ci/workspace/chipset_TONY_patch_01/opensource/component_code/vendor/huawei/extra/build/build_script/kirin_kernel_release/kernel/arch/arm64/include/asm/memory.h"
	.file 139 "/mnt/disk/jenkins/ci/workspace/chipset_TONY_patch_01/opensource/component_code/vendor/huawei/extra/build/build_script/kirin_kernel_release/kernel/include/asm-generic/percpu.h"
	.file 140 "/mnt/disk/jenkins/ci/workspace/chipset_TONY_patch_01/opensource/component_code/vendor/huawei/extra/build/build_script/kirin_kernel_release/kernel/include/linux/slab.h"
	.file 141 "/mnt/disk/jenkins/ci/workspace/chipset_TONY_patch_01/opensource/component_code/vendor/huawei/extra/build/build_script/kirin_kernel_release/kernel/include/linux/debug_locks.h"
	.file 142 "/mnt/disk/jenkins/ci/workspace/chipset_TONY_patch_01/opensource/component_code/vendor/huawei/extra/build/build_script/kirin_kernel_release/kernel/include/asm-generic/pgtable.h"
	.file 143 "/mnt/disk/jenkins/ci/workspace/chipset_TONY_patch_01/opensource/component_code/vendor/huawei/extra/build/build_script/kirin_kernel_release/kernel/arch/arm64/include/asm/irq.h"
	.file 144 "/mnt/disk/jenkins/ci/workspace/chipset_TONY_patch_01/opensource/component_code/vendor/huawei/extra/build/build_script/kirin_kernel_release/kernel/arch/arm64/include/asm/hardirq.h"
	.file 145 "/mnt/disk/jenkins/ci/workspace/chipset_TONY_patch_01/opensource/component_code/vendor/huawei/extra/build/build_script/kirin_kernel_release/kernel/include/linux/spinlock_api_smp.h"
	.file 146 "/mnt/disk/jenkins/ci/workspace/chipset_TONY_patch_01/opensource/component_code/vendor/huawei/extra/build/build_script/kirin_kernel_release/kernel/include/linux/timekeeping.h"
	.section	.note.GNU-stack,"",%progbits
